
ADC_POT_CH32V002J4M6_R2.elf:     file format elf32-littleriscv
ADC_POT_CH32V002J4M6_R2.elf
architecture: riscv:rv32, flags 0x00000112:
EXEC_P, HAS_SYMS, D_PAGED
start address 0x00000000

Program Header:
0x70000003 off    0x0001fbbb vaddr 0x00000000 paddr 0x00000000 align 2**0
         filesz 0x00000030 memsz 0x00000000 flags r--
    LOAD off    0x00001000 vaddr 0x00000000 paddr 0x00000000 align 2**12
         filesz 0x00003168 memsz 0x00003168 flags r-x
    LOAD off    0x00005000 vaddr 0x20000000 paddr 0x00003168 align 2**12
         filesz 0x000000d0 memsz 0x00000390 flags rw-
    LOAD off    0x00000e00 vaddr 0x20000e00 paddr 0x20000e00 align 2**12
         filesz 0x00000000 memsz 0x00000200 flags rw-

Sections:
Idx Name          Size      VMA       LMA       File off  Algn
  0 .init         000000a8  00000000  00000000  00001000  2**2
                  CONTENTS, ALLOC, LOAD, READONLY, CODE
  1 .text         000030c0  000000a8  000000a8  000010a8  2**3
                  CONTENTS, ALLOC, LOAD, READONLY, CODE
  2 .fini         00000000  00003168  00003168  000050d0  2**0
                  CONTENTS, ALLOC, LOAD, CODE
  3 .dalign       00000000  20000000  20000000  000050d0  2**0
                  CONTENTS
  4 .dlalign      00000000  00003168  00003168  000050d0  2**0
                  CONTENTS
  5 .data         000000d0  20000000  00003168  00005000  2**2
                  CONTENTS, ALLOC, LOAD, DATA
  6 .bss          000002c0  200000d0  00003238  000050d0  2**2
                  ALLOC
  7 .stack        00000200  20000e00  20000e00  00005e00  2**0
                  ALLOC
  8 .debug_info   0000940b  00000000  00000000  000050d0  2**0
                  CONTENTS, READONLY, DEBUGGING, OCTETS
  9 .debug_abbrev 00001c59  00000000  00000000  0000e4db  2**0
                  CONTENTS, READONLY, DEBUGGING, OCTETS
 10 .debug_aranges 00000a20  00000000  00000000  00010138  2**3
                  CONTENTS, READONLY, DEBUGGING, OCTETS
 11 .debug_rnglists 00000b13  00000000  00000000  00010b58  2**0
                  CONTENTS, READONLY, DEBUGGING, OCTETS
 12 .debug_line   0000b48b  00000000  00000000  0001166b  2**0
                  CONTENTS, READONLY, DEBUGGING, OCTETS
 13 .debug_str    00002b70  00000000  00000000  0001caf6  2**0
                  CONTENTS, READONLY, DEBUGGING, OCTETS
 14 .debug_line_str 00000524  00000000  00000000  0001f666  2**0
                  CONTENTS, READONLY, DEBUGGING, OCTETS
 15 .comment      00000031  00000000  00000000  0001fb8a  2**0
                  CONTENTS, READONLY
 16 .riscv.attributes 00000030  00000000  00000000  0001fbbb  2**0
                  CONTENTS, READONLY
 17 .debug_frame  00001550  00000000  00000000  0001fbec  2**2
                  CONTENTS, READONLY, DEBUGGING, OCTETS
 18 .debug_loclists 00003f26  00000000  00000000  0002113c  2**0
                  CONTENTS, READONLY, DEBUGGING, OCTETS
SYMBOL TABLE:
00000000 l    d  .init	00000000 .init
000000a8 l    d  .text	00000000 .text
00003168 l    d  .fini	00000000 .fini
20000000 l    d  .dalign	00000000 .dalign
00003168 l    d  .dlalign	00000000 .dlalign
20000000 l    d  .data	00000000 .data
200000d0 l    d  .bss	00000000 .bss
20000e00 l    d  .stack	00000000 .stack
00000000 l    d  .debug_info	00000000 .debug_info
00000000 l    d  .debug_abbrev	00000000 .debug_abbrev
00000000 l    d  .debug_aranges	00000000 .debug_aranges
00000000 l    d  .debug_rnglists	00000000 .debug_rnglists
00000000 l    d  .debug_line	00000000 .debug_line
00000000 l    d  .debug_str	00000000 .debug_str
00000000 l    d  .debug_line_str	00000000 .debug_line_str
00000000 l    d  .comment	00000000 .comment
00000000 l    d  .riscv.attributes	00000000 .riscv.attributes
00000000 l    d  .debug_frame	00000000 .debug_frame
00000000 l    d  .debug_loclists	00000000 .debug_loclists
00000000 l    df *ABS*	00000000 startup_ch32v00X.o
00000000 l    df *ABS*	00000000 save-restore.o
00000000 l    df *ABS*	00000000 div.o
00000000 l    df *ABS*	00000000 lib_a-memcpy-asm.o
00000000 l    df *ABS*	00000000 lib_a-memset.o
00000000 l    df *ABS*	00000000 ch32v00X_it.c
00000000 l    df *ABS*	00000000 main.c
200000d0 l     O .bss	00000002 kc.0
00000000 l    df *ABS*	00000000 oled_049.c
0000099c l     F .text	000000ba OledI2CWriteData
00000000 l    df *ABS*	00000000 system_ch32v00X.c
00000000 l    df *ABS*	00000000 ch32v00X_adc.c
00000000 l    df *ABS*	00000000 ch32v00X_dma.c
00000000 l    df *ABS*	00000000 ch32v00X_gpio.c
00000000 l    df *ABS*	00000000 ch32v00X_i2c.c
00000000 l    df *ABS*	00000000 ch32v00X_misc.c
00000000 l    df *ABS*	00000000 ch32v00X_rcc.c
2000004c l     O .data	00000010 PBHBPrescTable
20000038 l     O .data	00000014 ADCPrescTable
00000000 l    df *ABS*	00000000 ch32v00X_tim.c
00000000 l    df *ABS*	00000000 ch32v00X_usart.c
00000000 l    df *ABS*	00000000 debug.c
2000038e l     O .bss	00000001 p_us
2000038c l     O .bss	00000002 p_ms
00000000 l    df *ABS*	00000000 lib_a-wf_sqrt.o
00000000 l    df *ABS*	00000000 lib_a-ef_sqrt.o
200000c4 l     O .data	00000004 one
200000c0 l     O .data	00000004 tiny
00000000 l    df *ABS*	00000000 gedf2.o
00000000 l    df *ABS*	00000000 addsf3.o
00000000 l    df *ABS*	00000000 divsf3.o
00000000 l    df *ABS*	00000000 lesf2.o
00000000 l    df *ABS*	00000000 mulsf3.o
00000000 l    df *ABS*	00000000 subsf3.o
00000000 l    df *ABS*	00000000 unordsf2.o
00000000 l    df *ABS*	00000000 fixsfsi.o
00000000 l    df *ABS*	00000000 floatsisf.o
00000000 l    df *ABS*	00000000 extendsfdf2.o
00000000 l    df *ABS*	00000000 _clzsi2.o
00000000 l    df *ABS*	00000000 lib_a-errno.o
00000000 l    df *ABS*	00000000 lib_a-impure.o
2000005c l     O .data	00000060 impure_data
00000e6e  w      .text	00000000 OPCM_IRQHandler
0000110e g     F .text	00000014 DMA_Cmd
2000012c g     O .bss	00000004 adc_sum1
00000ba0 g     F .text	00000026 ssd1306Print
200008c0 g       .data	00000000 __global_pointer$
00001144 g     F .text	00000002 DMA_GetITStatus
00000e6e  w      .text	00000000 TIM1_CC_IRQHandler
00000162 g     F .text	00000010 HardFault_Handler
20000120 g     O .bss	00000004 adc_sum2_r
0000059e g     F .text	0000005e printInt
00000f76 g     F .text	00000012 ADC_DMACmd
0000205c g     F .text	00000344 .hidden __divsf3
00000e6e  w      .text	00000000 SysTick_Handler
000016fc g     F .text	00000062 NVIC_Init
00000e6e  w      .text	00000000 PVD_IRQHandler
0000058a g     F .text	00000014 printString
00000160 g     F .text	00000002 NMI_Handler
00002ad0 g     F .text	00000060 .hidden __fixsfsi
00001c1c g     F .text	000000e2 .hidden __gtdf2
00002d12 g     F .text	00000006 __errno
200000e4 g     O .bss	00000004 p_adc1_2
00001a1e g     F .text	0000000a USART_GetFlagStatus
200000d0 g       .bss	00000000 _sbss
00000200 g       *ABS*	00000000 __stack_size
200000d8 g     O .bss	00000004 ms_adc_2
00001014 g     F .text	00000018 ADC_ExternalTrigConvCmd
00001a58 g     F .text	00000064 USART_Printf_Init
200000f0 g     O .bss	00000004 v_adc1
000010d6 g     F .text	00000038 DMA_Init
00002714 g     F .text	00000380 .hidden __subsf3
20000104 g     O .bss	00000004 adc_count
00001abc g     F .text	00000046 sqrtf
000000b2 g     F .text	0000000a .hidden __riscv_restore_2
00002dd8 g     O .text	000001e5 font
0000013a g     F .text	00000016 memcpy
00000f66 g     F .text	00000010 ADC_Cmd
00000b04 g     F .text	00000042 ssd1306Fill
000011c4 g     F .text	000000a2 GPIO_PinRemapConfig
00001870 g     F .text	0000001e RCC_PB2PeriphResetCmd
000018fa g     F .text	00000056 TIM_Cmd
000000c4 g     F .text	0000002c .hidden __hidden___udivsi3
20000034 g     O .data	00000004 SystemCoreClock
200000f4 g     O .bss	00000004 v_rms1
000000c4 g     F .text	0000002c .hidden __udivsi3
000000a8 g       .init	00000000 _einit
000023a0 g     F .text	00000098 .hidden __lesf2
200000d4 g     O .bss	00000004 count_m_adc
0000114e g     F .text	00000076 GPIO_Init
0000175e g     F .text	00000016 RCC_ADCCLKConfig
20000388 g     O .bss	00000004 NVIC_Priority_Group
00000e6e  w      .text	00000000 SPI1_IRQHandler
00001a02 g     F .text	00000014 USART_Cmd
000000a8 g     F .text	0000000a .hidden __riscv_save_1
000000b2 g     F .text	0000000a .hidden __riscv_restore_0
00000e6e  w      .text	00000000 AWU_IRQHandler
00000e6e  w      .text	00000000 EXTI7_0_IRQHandler
2000010c g     O .bss	00000004 adc_sum_sq2
00001146 g     F .text	00000008 DMA_ClearITPendingBit
00002c04 g     F .text	000000a6 .hidden __extendsfdf2
0000025a g     F .text	00000068 TIM1_PWM_In
2000011c g     O .bss	00000004 adc_prod1_2
20000e00 g       .stack	00000000 _heap_end
20000118 g     O .bss	00000004 adc_prod1_2_r
00000e6e  w      .text	00000000 DMA1_Channel4_IRQHandler
00000f88 g     F .text	0000008c ADC_RegularChannelConfig
0000169c g     F .text	00000004 I2C_SendData
00000e6e  w      .text	00000000 ADC1_IRQHandler
00001558 g     F .text	000000de I2C_Init
00001136 g     F .text	0000000e DMA_GetFlagStatus
20000124 g     O .bss	00000004 adc_sum2
20000390 g       .bss	00000000 _ebss
00000e6e  w      .text	00000000 DMA1_Channel7_IRQHandler
200000fc g     O .bss	00000004 adc_v1
000005fc g     F .text	00000078 printFloat
20000128 g     O .bss	00000004 adc_sum1_r
00001a28 g     F .text	00000030 Delay_Init
00001834 g     F .text	0000001e RCC_PB2PeriphClockCmd
00001266 g     F .text	000002f2 GPIO_IPD_Unused
000000f0 g     F .text	00000008 .hidden __umodsi3
0000164e g     F .text	0000001a I2C_GenerateSTART
00000e6e  w      .text	00000000 I2C1_EV_IRQHandler
20000000 g     O .data	00000004 m_adc_2
00001774 g     F .text	000000a2 RCC_GetClocksFreq
00000e6e  w      .text	00000000 DMA1_Channel6_IRQHandler
00002caa g     F .text	00000068 .hidden __clzsi2
00001968 g     F .text	0000009a USART_Init
00000e6e  w      .text	00000000 RCC_IRQHandler
00000e6e  w      .text	00000000 TIM1_TRG_COM_IRQHandler
20000008 g     O .data	0000001b ssd1306InitCommand
20000108 g     O .bss	00000004 adc_sum_sq2_r
000004d6 g     F .text	00000028 DMA1_Channel1_IRQHandler
00000000 g       .init	00000000 _start
000016c4 g     F .text	00000032 I2C_GetFlagStatus
00001816 g     F .text	0000001e RCC_HBPeriphClockCmd
00002b30 g     F .text	000000d4 .hidden __floatsisf
00001852 g     F .text	0000001e RCC_PB1PeriphClockCmd
00001636 g     F .text	00000018 I2C_Cmd
00001950 g     F .text	00000018 TIM_SelectOutputTrigger
20000000 g       .dalign	00000000 _data_vma
200000ec g     O .bss	00000004 v_rms2
000016a0 g     F .text	0000000e I2C_Send7bitAddress
0000055e g     F .text	0000002c printChar
00000150 g     F .text	00000010 memset
00001b02 g     F .text	0000011a __ieee754_sqrtf
000004fe g     F .text	00000060 DMA_Tx_Init
00000674 g     F .text	00000328 main
000023a0 g     F .text	00000098 .hidden __ltsf2
20000004 g     O .data	00000004 m_adc_1
00000ae4 g     F .text	00000020 ssd1306Init
00000a56 g     F .text	0000008e IIC_Init
00000e6e  w      .text	00000000 DMA1_Channel5_IRQHandler
000000bc g     F .text	00000058 .hidden __divsi3
00002438 g     F .text	000002dc .hidden __mulsf3
200000e8 g     O .bss	00000004 v_adc2
0000102c g     F .text	00000018 ADC_BufferCmd
00000d46 g     F .text	000000c2 SystemInit
00000b46 g     F .text	0000005a ssd1306PrintChar
00003068 g     O .text	00000100 .hidden __clz_tab
00000000 g       .init	00000000 _sinit
00000e6e  w      .text	00000000 DMA1_Channel3_IRQHandler
200000c8 g     O .data	00000004 _impure_ptr
00000172 g     F .text	000000e8 ADC_Function_Init
00000e6e  w      .text	00000000 TIM1_UP_IRQHandler
00000bc6 g     F .text	00000180 ssd1306PrintFloat
00000e6e  w      .text	00000000 WWDG_IRQHandler
00001122 g     F .text	00000014 DMA_ITConfig
20000114 g     O .bss	00000004 adc_sum_sq1
00000e6e  w      .text	00000000 TIM2_IRQHandler
20001000 g       .stack	00000000 _eusrstack
000000a8 g     F .text	0000000a .hidden __riscv_save_2
00000e6e  w      .text	00000000 SW_Handler
20000130 g     O .bss	00000258 adc_buf
00000eee g     F .text	0000002a ADC_DeInit
00000e6e  w      .text	00000000 TIM1_BRK_IRQHandler
00000f18 g     F .text	0000004e ADC_Init
00001a16 g     F .text	00000008 USART_SendData
200000e0 g     O .bss	00000004 fp_p
200000d0 g       .data	00000000 _edata
20000390 g       .bss	00000000 _end
00002a94 g     F .text	0000003c .hidden __unordsf2
0000188e g     F .text	0000006c TIM_TimeBaseInit
20000100 g     O .bss	00000001 adc_f_calc
00003168 g       .dlalign	00000000 _data_lma
00000e6e  w      .text	00000000 USART2_IRQHandler
00000e08 g     F .text	00000066 SystemCoreClockUpdate
00000114 g     F .text	00000024 .hidden __modsi3
00000e6e  w      .text	00000000 DMA1_Channel2_IRQHandler
20000024 g     O .data	00000010 HBPrescTable
20000110 g     O .bss	00000004 adc_sum_sq1_r
00000e70  w      .text	00000000 handle_reset
000002c2 g     F .text	00000214 calc_parcial_IRQ
00000e6e  w      .text	00000000 FLASH_IRQHandler
000000a8 g     F .text	0000000a .hidden __riscv_save_0
00000e6e  w      .text	00000000 USART1_IRQHandler
00001682 g     F .text	0000001a I2C_AcknowledgeConfig
00001c1c g     F .text	000000e2 .hidden __gedf2
000016ae g     F .text	00000016 I2C_CheckEvent
00001668 g     F .text	0000001a I2C_GenerateSTOP
00000e6e  w      .text	00000000 I2C1_ER_IRQHandler
000016f6 g     F .text	00000006 NVIC_PriorityGroupConfig
200000dc g     O .bss	00000004 ms_adc_1
200000f8 g     O .bss	00000004 adc_v2
00001044 g     F .text	00000092 DMA_DeInit
000000b2 g     F .text	0000000a .hidden __riscv_restore_1
00001cfe g     F .text	0000035e .hidden __addsf3



Disassembly of section .init:

00000000 <_sinit>:
   0:	6710006f          	j	e70 <handle_reset>
   4:	00000000          	.word	0x00000000
   8:	00000160          	.word	0x00000160
   c:	00000162          	.word	0x00000162
	...
  30:	00000e6e          	.word	0x00000e6e
  34:	00000000          	.word	0x00000000
  38:	00000e6e          	.word	0x00000e6e
  3c:	00000000          	.word	0x00000000
  40:	00000e6e          	.word	0x00000e6e
  44:	00000e6e          	.word	0x00000e6e
  48:	00000e6e          	.word	0x00000e6e
  4c:	00000e6e          	.word	0x00000e6e
  50:	00000e6e          	.word	0x00000e6e
  54:	00000e6e          	.word	0x00000e6e
  58:	000004d6          	.word	0x000004d6
  5c:	00000e6e          	.word	0x00000e6e
  60:	00000e6e          	.word	0x00000e6e
  64:	00000e6e          	.word	0x00000e6e
  68:	00000e6e          	.word	0x00000e6e
  6c:	00000e6e          	.word	0x00000e6e
  70:	00000e6e          	.word	0x00000e6e
  74:	00000e6e          	.word	0x00000e6e
  78:	00000e6e          	.word	0x00000e6e
  7c:	00000e6e          	.word	0x00000e6e
  80:	00000e6e          	.word	0x00000e6e
  84:	00000e6e          	.word	0x00000e6e
  88:	00000e6e          	.word	0x00000e6e
  8c:	00000e6e          	.word	0x00000e6e
  90:	00000e6e          	.word	0x00000e6e
  94:	00000e6e          	.word	0x00000e6e
  98:	00000e6e          	.word	0x00000e6e
  9c:	00000e6e          	.word	0x00000e6e
  a0:	00000e6e          	.word	0x00000e6e
  a4:	0000                	unimp
	...

Disassembly of section .text:

000000a8 <__riscv_save_0>:
      a8:	1151                	addi	sp,sp,-12
      aa:	c026                	sw	s1,0(sp)
      ac:	c222                	sw	s0,4(sp)
      ae:	c406                	sw	ra,8(sp)
      b0:	8282                	jr	t0

000000b2 <__riscv_restore_0>:
      b2:	4482                	lw	s1,0(sp)
      b4:	4412                	lw	s0,4(sp)
      b6:	40a2                	lw	ra,8(sp)
      b8:	0131                	addi	sp,sp,12
      ba:	8082                	ret

000000bc <__divsi3>:
      bc:	02054e63          	bltz	a0,f8 <__umodsi3+0x8>
      c0:	0405c363          	bltz	a1,106 <__umodsi3+0x16>

000000c4 <__hidden___udivsi3>:
      c4:	862e                	mv	a2,a1
      c6:	85aa                	mv	a1,a0
      c8:	557d                	li	a0,-1
      ca:	c215                	beqz	a2,ee <__hidden___udivsi3+0x2a>
      cc:	4685                	li	a3,1
      ce:	00b67863          	bgeu	a2,a1,de <__hidden___udivsi3+0x1a>
      d2:	00c05663          	blez	a2,de <__hidden___udivsi3+0x1a>
      d6:	0606                	slli	a2,a2,0x1
      d8:	0686                	slli	a3,a3,0x1
      da:	feb66ce3          	bltu	a2,a1,d2 <__hidden___udivsi3+0xe>
      de:	4501                	li	a0,0
      e0:	00c5e463          	bltu	a1,a2,e8 <__hidden___udivsi3+0x24>
      e4:	8d91                	sub	a1,a1,a2
      e6:	8d55                	or	a0,a0,a3
      e8:	8285                	srli	a3,a3,0x1
      ea:	8205                	srli	a2,a2,0x1
      ec:	faf5                	bnez	a3,e0 <__hidden___udivsi3+0x1c>
      ee:	8082                	ret

000000f0 <__umodsi3>:
      f0:	8286                	mv	t0,ra
      f2:	3fc9                	jal	c4 <__hidden___udivsi3>
      f4:	852e                	mv	a0,a1
      f6:	8282                	jr	t0
      f8:	40a00533          	neg	a0,a0
      fc:	00b04763          	bgtz	a1,10a <__umodsi3+0x1a>
     100:	40b005b3          	neg	a1,a1
     104:	b7c1                	j	c4 <__hidden___udivsi3>
     106:	40b005b3          	neg	a1,a1
     10a:	8286                	mv	t0,ra
     10c:	3f65                	jal	c4 <__hidden___udivsi3>
     10e:	40a00533          	neg	a0,a0
     112:	8282                	jr	t0

00000114 <__modsi3>:
     114:	8286                	mv	t0,ra
     116:	0005c763          	bltz	a1,124 <__modsi3+0x10>
     11a:	00054963          	bltz	a0,12c <__modsi3+0x18>
     11e:	375d                	jal	c4 <__hidden___udivsi3>
     120:	852e                	mv	a0,a1
     122:	8282                	jr	t0
     124:	40b005b3          	neg	a1,a1
     128:	fe055be3          	bgez	a0,11e <__modsi3+0xa>
     12c:	40a00533          	neg	a0,a0
     130:	3f51                	jal	c4 <__hidden___udivsi3>
     132:	40b00533          	neg	a0,a1
     136:	8282                	jr	t0
	...

0000013a <memcpy>:
     13a:	832a                	mv	t1,a0
     13c:	ca09                	beqz	a2,14e <memcpy+0x14>
     13e:	00058383          	lb	t2,0(a1)
     142:	00730023          	sb	t2,0(t1)
     146:	167d                	addi	a2,a2,-1
     148:	0305                	addi	t1,t1,1
     14a:	0585                	addi	a1,a1,1
     14c:	fa6d                	bnez	a2,13e <memcpy+0x4>
     14e:	8082                	ret

00000150 <memset>:
     150:	832a                	mv	t1,a0
     152:	c611                	beqz	a2,15e <memset+0xe>
     154:	00b30023          	sb	a1,0(t1)
     158:	167d                	addi	a2,a2,-1
     15a:	0305                	addi	t1,t1,1
     15c:	fe65                	bnez	a2,154 <memset+0x4>
     15e:	8082                	ret

00000160 <NMI_Handler>:
     160:	a001                	j	160 <NMI_Handler>

00000162 <HardFault_Handler>:
     162:	beef07b7          	lui	a5,0xbeef0
     166:	e000e737          	lui	a4,0xe000e
     16a:	08078793          	addi	a5,a5,128 # beef0080 <_eusrstack+0x9eeef080>
     16e:	c73c                	sw	a5,72(a4)
     170:	a001                	j	170 <HardFault_Handler+0xe>

00000172 <ADC_Function_Init>:
     172:	f37ff2ef          	jal	t0,a8 <__riscv_save_0>
     176:	fd410113          	addi	sp,sp,-44
     17a:	4661                	li	a2,24
     17c:	4581                	li	a1,0
     17e:	0848                	addi	a0,sp,20
     180:	3fc1                	jal	150 <memset>
     182:	4585                	li	a1,1
     184:	4511                	li	a0,4
     186:	c402                	sw	zero,8(sp)
     188:	c602                	sw	zero,12(sp)
     18a:	c802                	sw	zero,16(sp)
     18c:	c002                	sw	zero,0(sp)
     18e:	c202                	sw	zero,4(sp)
     190:	6a4010ef          	jal	ra,1834 <RCC_PB2PeriphClockCmd>
     194:	4585                	li	a1,1
     196:	20000513          	li	a0,512
     19a:	69a010ef          	jal	ra,1834 <RCC_PB2PeriphClockCmd>
     19e:	6531                	lui	a0,0xc
     1a0:	5be010ef          	jal	ra,175e <RCC_ADCCLKConfig>
     1a4:	40011537          	lui	a0,0x40011
     1a8:	4791                	li	a5,4
     1aa:	002c                	addi	a1,sp,8
     1ac:	80050513          	addi	a0,a0,-2048 # 40010800 <_eusrstack+0x2000f800>
     1b0:	847c                	sh	a5,8(sp)
     1b2:	c802                	sw	zero,16(sp)
     1b4:	79b000ef          	jal	ra,114e <GPIO_Init>
     1b8:	47c1                	li	a5,16
     1ba:	002c                	addi	a1,sp,8
     1bc:	40011537          	lui	a0,0x40011
     1c0:	40012437          	lui	s0,0x40012
     1c4:	847c                	sh	a5,8(sp)
     1c6:	c802                	sw	zero,16(sp)
     1c8:	787000ef          	jal	ra,114e <GPIO_Init>
     1cc:	40040513          	addi	a0,s0,1024 # 40012400 <_eusrstack+0x20011400>
     1d0:	51f000ef          	jal	ra,eee <ADC_DeInit>
     1d4:	478d                	li	a5,3
     1d6:	4485                	li	s1,1
     1d8:	084c                	addi	a1,sp,20
     1da:	40040513          	addi	a0,s0,1024
     1de:	02f10423          	sb	a5,40(sp)
     1e2:	cc26                	sw	s1,24(sp)
     1e4:	ca02                	sw	zero,20(sp)
     1e6:	ce02                	sw	zero,28(sp)
     1e8:	d002                	sw	zero,32(sp)
     1ea:	d202                	sw	zero,36(sp)
     1ec:	52d000ef          	jal	ra,f18 <ADC_Init>
     1f0:	40040513          	addi	a0,s0,1024
     1f4:	469d                	li	a3,7
     1f6:	4605                	li	a2,1
     1f8:	4581                	li	a1,0
     1fa:	58f000ef          	jal	ra,f88 <ADC_RegularChannelConfig>
     1fe:	40040513          	addi	a0,s0,1024
     202:	469d                	li	a3,7
     204:	4609                	li	a2,2
     206:	4589                	li	a1,2
     208:	581000ef          	jal	ra,f88 <ADC_RegularChannelConfig>
     20c:	469d                	li	a3,7
     20e:	460d                	li	a2,3
     210:	40040513          	addi	a0,s0,1024
     214:	4581                	li	a1,0
     216:	573000ef          	jal	ra,f88 <ADC_RegularChannelConfig>
     21a:	4585                	li	a1,1
     21c:	40040513          	addi	a0,s0,1024
     220:	5f5000ef          	jal	ra,1014 <ADC_ExternalTrigConvCmd>
     224:	11d00793          	li	a5,285
     228:	850a                	mv	a0,sp
     22a:	807c                	sh	a5,0(sp)
     22c:	c226                	sw	s1,4(sp)
     22e:	00010123          	sb	zero,2(sp)
     232:	4ca010ef          	jal	ra,16fc <NVIC_Init>
     236:	40040513          	addi	a0,s0,1024
     23a:	4585                	li	a1,1
     23c:	53b000ef          	jal	ra,f76 <ADC_DMACmd>
     240:	40040513          	addi	a0,s0,1024
     244:	4585                	li	a1,1
     246:	521000ef          	jal	ra,f66 <ADC_Cmd>
     24a:	4585                	li	a1,1
     24c:	40040513          	addi	a0,s0,1024
     250:	5dd000ef          	jal	ra,102c <ADC_BufferCmd>
     254:	02c10113          	addi	sp,sp,44
     258:	bda9                	j	b2 <__riscv_restore_0>

0000025a <TIM1_PWM_In>:
     25a:	e4fff2ef          	jal	t0,a8 <__riscv_save_0>
     25e:	84aa                	mv	s1,a0
     260:	6505                	lui	a0,0x1
     262:	1131                	addi	sp,sp,-20
     264:	842e                	mv	s0,a1
     266:	81050513          	addi	a0,a0,-2032 # 810 <main+0x19c>
     26a:	4585                	li	a1,1
     26c:	c402                	sw	zero,8(sp)
     26e:	c602                	sw	zero,12(sp)
     270:	00011823          	sh	zero,16(sp)
     274:	c002                	sw	zero,0(sp)
     276:	c202                	sw	zero,4(sp)
     278:	5bc010ef          	jal	ra,1834 <RCC_PB2PeriphClockCmd>
     27c:	8460                	sh	s0,8(sp)
     27e:	40013437          	lui	s0,0x40013
     282:	002c                	addi	a1,sp,8
     284:	c0040513          	addi	a0,s0,-1024 # 40012c00 <_eusrstack+0x20011c00>
     288:	8664                	sh	s1,12(sp)
     28a:	00011723          	sh	zero,14(sp)
     28e:	00011523          	sh	zero,10(sp)
     292:	5fc010ef          	jal	ra,188e <TIM_TimeBaseInit>
     296:	02300793          	li	a5,35
     29a:	807c                	sh	a5,0(sp)
     29c:	850a                	mv	a0,sp
     29e:	4785                	li	a5,1
     2a0:	815c                	sb	a5,2(sp)
     2a2:	c23e                	sw	a5,4(sp)
     2a4:	458010ef          	jal	ra,16fc <NVIC_Init>
     2a8:	c0040513          	addi	a0,s0,-1024
     2ac:	02000593          	li	a1,32
     2b0:	6a0010ef          	jal	ra,1950 <TIM_SelectOutputTrigger>
     2b4:	4585                	li	a1,1
     2b6:	c0040513          	addi	a0,s0,-1024
     2ba:	640010ef          	jal	ra,18fa <TIM_Cmd>
     2be:	0151                	addi	sp,sp,20
     2c0:	bbcd                	j	b2 <__riscv_restore_0>

000002c2 <calc_parcial_IRQ>:
     2c2:	1151                	addi	sp,sp,-12
     2c4:	20000637          	lui	a2,0x20000
     2c8:	80019823          	sh	zero,-2032(gp) # 200000d0 <kc.0>
     2cc:	c422                	sw	s0,8(sp)
     2ce:	c226                	sw	s1,4(sp)
     2d0:	c02a                	sw	a0,0(sp)
     2d2:	09600793          	li	a5,150
     2d6:	13060613          	addi	a2,a2,304 # 20000130 <adc_buf>
     2da:	4582                	lw	a1,0(sp)
     2dc:	1c058463          	beqz	a1,4a4 <calc_parcial_IRQ+0x1e2>
     2e0:	00278513          	addi	a0,a5,2
     2e4:	00179593          	slli	a1,a5,0x1
     2e8:	0506                	slli	a0,a0,0x1
     2ea:	95b2                	add	a1,a1,a2
     2ec:	9532                	add	a0,a0,a2
     2ee:	218e                	lhu	a1,0(a1)
     2f0:	210a                	lhu	a0,0(a0)
     2f2:	95aa                	add	a1,a1,a0
     2f4:	8585                	srai	a1,a1,0x1
     2f6:	82b1ae23          	sw	a1,-1988(gp) # 200000fc <adc_v1>
     2fa:	00178593          	addi	a1,a5,1
     2fe:	0586                	slli	a1,a1,0x1
     300:	95b2                	add	a1,a1,a2
     302:	218e                	lhu	a1,0(a1)
     304:	07f00493          	li	s1,127
     308:	05c2                	slli	a1,a1,0x10
     30a:	81c1                	srli	a1,a1,0x10
     30c:	82b1ac23          	sw	a1,-1992(gp) # 200000f8 <adc_v2>
     310:	83c1a503          	lw	a0,-1988(gp) # 200000fc <adc_v1>
     314:	86c1a583          	lw	a1,-1940(gp) # 2000012c <adc_sum1>
     318:	95aa                	add	a1,a1,a0
     31a:	86b1a623          	sw	a1,-1940(gp) # 2000012c <adc_sum1>
     31e:	8381a303          	lw	t1,-1992(gp) # 200000f8 <adc_v2>
     322:	8641a583          	lw	a1,-1948(gp) # 20000124 <adc_sum2>
     326:	959a                	add	a1,a1,t1
     328:	86b1a223          	sw	a1,-1948(gp) # 20000124 <adc_sum2>
     32c:	20000537          	lui	a0,0x20000
     330:	00452303          	lw	t1,4(a0) # 20000004 <m_adc_1>
     334:	83c1a583          	lw	a1,-1988(gp) # 200000fc <adc_v1>
     338:	406585b3          	sub	a1,a1,t1
     33c:	82b1ae23          	sw	a1,-1988(gp) # 200000fc <adc_v1>
     340:	200005b7          	lui	a1,0x20000
     344:	0005a283          	lw	t0,0(a1) # 20000000 <m_adc_2>
     348:	8381a303          	lw	t1,-1992(gp) # 200000f8 <adc_v2>
     34c:	40530333          	sub	t1,t1,t0
     350:	8261ac23          	sw	t1,-1992(gp) # 200000f8 <adc_v2>
     354:	83c1a383          	lw	t2,-1988(gp) # 200000fc <adc_v1>
     358:	81c1a283          	lw	t0,-2020(gp) # 200000dc <ms_adc_1>
     35c:	929e                	add	t0,t0,t2
     35e:	8051ae23          	sw	t0,-2020(gp) # 200000dc <ms_adc_1>
     362:	8381a403          	lw	s0,-1992(gp) # 200000f8 <adc_v2>
     366:	8181a283          	lw	t0,-2024(gp) # 200000d8 <ms_adc_2>
     36a:	92a2                	add	t0,t0,s0
     36c:	8051ac23          	sw	t0,-2024(gp) # 200000d8 <ms_adc_2>
     370:	8141a283          	lw	t0,-2028(gp) # 200000d4 <count_m_adc>
     374:	0285                	addi	t0,t0,1
     376:	8051aa23          	sw	t0,-2028(gp) # 200000d4 <count_m_adc>
     37a:	0654f263          	bgeu	s1,t0,3de <calc_parcial_IRQ+0x11c>
     37e:	8001aa23          	sw	zero,-2028(gp) # 200000d4 <count_m_adc>
     382:	81c1a283          	lw	t0,-2020(gp) # 200000dc <ms_adc_1>
     386:	14505063          	blez	t0,4c6 <calc_parcial_IRQ+0x204>
     38a:	00452283          	lw	t0,4(a0)
     38e:	0285                	addi	t0,t0,1
     390:	00552223          	sw	t0,4(a0)
     394:	8181a283          	lw	t0,-2024(gp) # 200000d8 <ms_adc_2>
     398:	12505b63          	blez	t0,4ce <calc_parcial_IRQ+0x20c>
     39c:	0005a283          	lw	t0,0(a1)
     3a0:	0285                	addi	t0,t0,1
     3a2:	0055a023          	sw	t0,0(a1)
     3a6:	00452283          	lw	t0,4(a0)
     3aa:	0002d363          	bgez	t0,3b0 <calc_parcial_IRQ+0xee>
     3ae:	4281                	li	t0,0
     3b0:	6405                	lui	s0,0x1
     3b2:	0082c463          	blt	t0,s0,3ba <calc_parcial_IRQ+0xf8>
     3b6:	fff40293          	addi	t0,s0,-1 # fff <ADC_RegularChannelConfig+0x77>
     3ba:	00552223          	sw	t0,4(a0)
     3be:	0005a503          	lw	a0,0(a1)
     3c2:	00055363          	bgez	a0,3c8 <calc_parcial_IRQ+0x106>
     3c6:	4501                	li	a0,0
     3c8:	6405                	lui	s0,0x1
     3ca:	00854463          	blt	a0,s0,3d2 <calc_parcial_IRQ+0x110>
     3ce:	fff40513          	addi	a0,s0,-1 # fff <ADC_RegularChannelConfig+0x77>
     3d2:	00a5a023          	sw	a0,0(a1)
     3d6:	8001ae23          	sw	zero,-2020(gp) # 200000dc <ms_adc_1>
     3da:	8001ac23          	sw	zero,-2024(gp) # 200000d8 <ms_adc_2>
     3de:	83c1a583          	lw	a1,-1988(gp) # 200000fc <adc_v1>
     3e2:	83c1a283          	lw	t0,-1988(gp) # 200000fc <adc_v1>
     3e6:	8541a303          	lw	t1,-1964(gp) # 20000114 <adc_sum_sq1>
     3ea:	025585b3          	mul	a1,a1,t0
     3ee:	6405                	lui	s0,0x1
     3f0:	8599                	srai	a1,a1,0x6
     3f2:	959a                	add	a1,a1,t1
     3f4:	84b1aa23          	sw	a1,-1964(gp) # 20000114 <adc_sum_sq1>
     3f8:	8381a303          	lw	t1,-1992(gp) # 200000f8 <adc_v2>
     3fc:	8381a383          	lw	t2,-1992(gp) # 200000f8 <adc_v2>
     400:	84c1a283          	lw	t0,-1972(gp) # 2000010c <adc_sum_sq2>
     404:	02730333          	mul	t1,t1,t2
     408:	40635313          	srai	t1,t1,0x6
     40c:	9316                	add	t1,t1,t0
     40e:	8461a623          	sw	t1,-1972(gp) # 2000010c <adc_sum_sq2>
     412:	83c1a283          	lw	t0,-1988(gp) # 200000fc <adc_v1>
     416:	8381a383          	lw	t2,-1992(gp) # 200000f8 <adc_v2>
     41a:	85c1a683          	lw	a3,-1956(gp) # 2000011c <adc_prod1_2>
     41e:	027282b3          	mul	t0,t0,t2
     422:	4062d293          	srai	t0,t0,0x6
     426:	92b6                	add	t0,t0,a3
     428:	8451ae23          	sw	t0,-1956(gp) # 2000011c <adc_prod1_2>
     42c:	8441a283          	lw	t0,-1980(gp) # 20000104 <adc_count>
     430:	0285                	addi	t0,t0,1
     432:	8451a223          	sw	t0,-1980(gp) # 20000104 <adc_count>
     436:	8441a383          	lw	t2,-1980(gp) # 20000104 <adc_count>
     43a:	76f40293          	addi	t0,s0,1903 # 176f <RCC_ADCCLKConfig+0x11>
     43e:	0472f663          	bgeu	t0,t2,48a <calc_parcial_IRQ+0x1c8>
     442:	86c1a383          	lw	t2,-1940(gp) # 2000012c <adc_sum1>
     446:	84a2                	mv	s1,s0
     448:	8671a423          	sw	t2,-1944(gp) # 20000128 <adc_sum1_r>
     44c:	8641a403          	lw	s0,-1948(gp) # 20000124 <adc_sum2>
     450:	8681a023          	sw	s0,-1952(gp) # 20000120 <adc_sum2_r>
     454:	8541a403          	lw	s0,-1964(gp) # 20000114 <adc_sum_sq1>
     458:	8481a823          	sw	s0,-1968(gp) # 20000110 <adc_sum_sq1_r>
     45c:	84c1a403          	lw	s0,-1972(gp) # 2000010c <adc_sum_sq2>
     460:	8481a423          	sw	s0,-1976(gp) # 20000108 <adc_sum_sq2_r>
     464:	85c1a403          	lw	s0,-1956(gp) # 2000011c <adc_prod1_2>
     468:	8481ac23          	sw	s0,-1960(gp) # 20000118 <adc_prod1_2_r>
     46c:	8401ae23          	sw	zero,-1956(gp) # 2000011c <adc_prod1_2>
     470:	8601a623          	sw	zero,-1940(gp) # 2000012c <adc_sum1>
     474:	8601a223          	sw	zero,-1948(gp) # 20000124 <adc_sum2>
     478:	8401aa23          	sw	zero,-1964(gp) # 20000114 <adc_sum_sq1>
     47c:	8401a623          	sw	zero,-1972(gp) # 2000010c <adc_sum_sq2>
     480:	8401a223          	sw	zero,-1980(gp) # 20000104 <adc_count>
     484:	4585                	li	a1,1
     486:	84b18023          	sb	a1,-1984(gp) # 20000100 <adc_f_calc>
     48a:	078d                	addi	a5,a5,3
     48c:	12c00693          	li	a3,300
     490:	e4d795e3          	bne	a5,a3,2da <calc_parcial_IRQ+0x18>
     494:	4422                	lw	s0,8(sp)
     496:	03200793          	li	a5,50
     49a:	80f19823          	sh	a5,-2032(gp) # 200000d0 <kc.0>
     49e:	4492                	lw	s1,4(sp)
     4a0:	0131                	addi	sp,sp,12
     4a2:	8082                	ret
     4a4:	f6a78593          	addi	a1,a5,-150
     4a8:	f6c78513          	addi	a0,a5,-148
     4ac:	0586                	slli	a1,a1,0x1
     4ae:	0506                	slli	a0,a0,0x1
     4b0:	95b2                	add	a1,a1,a2
     4b2:	9532                	add	a0,a0,a2
     4b4:	218e                	lhu	a1,0(a1)
     4b6:	210a                	lhu	a0,0(a0)
     4b8:	95aa                	add	a1,a1,a0
     4ba:	8585                	srai	a1,a1,0x1
     4bc:	82b1ae23          	sw	a1,-1988(gp) # 200000fc <adc_v1>
     4c0:	f6b78593          	addi	a1,a5,-149
     4c4:	bd2d                	j	2fe <calc_parcial_IRQ+0x3c>
     4c6:	00452283          	lw	t0,4(a0)
     4ca:	12fd                	addi	t0,t0,-1
     4cc:	b5d1                	j	390 <calc_parcial_IRQ+0xce>
     4ce:	0005a283          	lw	t0,0(a1)
     4d2:	12fd                	addi	t0,t0,-1
     4d4:	b5f9                	j	3a2 <calc_parcial_IRQ+0xe0>

000004d6 <DMA1_Channel1_IRQHandler>:
     4d6:	4511                	li	a0,4
     4d8:	46d000ef          	jal	ra,1144 <DMA_GetITStatus>
     4dc:	c511                	beqz	a0,4e8 <DMA1_Channel1_IRQHandler+0x12>
     4de:	4501                	li	a0,0
     4e0:	33cd                	jal	2c2 <calc_parcial_IRQ>
     4e2:	4511                	li	a0,4
     4e4:	463000ef          	jal	ra,1146 <DMA_ClearITPendingBit>
     4e8:	4509                	li	a0,2
     4ea:	45b000ef          	jal	ra,1144 <DMA_GetITStatus>
     4ee:	c511                	beqz	a0,4fa <DMA1_Channel1_IRQHandler+0x24>
     4f0:	4505                	li	a0,1
     4f2:	3bc1                	jal	2c2 <calc_parcial_IRQ>
     4f4:	4509                	li	a0,2
     4f6:	451000ef          	jal	ra,1146 <DMA_ClearITPendingBit>
     4fa:	30200073          	mret

000004fe <DMA_Tx_Init>:
     4fe:	babff2ef          	jal	t0,a8 <__riscv_save_0>
     502:	fcc10113          	addi	sp,sp,-52
     506:	8432                	mv	s0,a2
     508:	c02a                	sw	a0,0(sp)
     50a:	02c00613          	li	a2,44
     50e:	c22e                	sw	a1,4(sp)
     510:	0028                	addi	a0,sp,8
     512:	4581                	li	a1,0
     514:	84b6                	mv	s1,a3
     516:	392d                	jal	150 <memset>
     518:	4585                	li	a1,1
     51a:	4505                	li	a0,1
     51c:	2fa010ef          	jal	ra,1816 <RCC_HBPeriphClockCmd>
     520:	4502                	lw	a0,0(sp)
     522:	323000ef          	jal	ra,1044 <DMA_DeInit>
     526:	08000793          	li	a5,128
     52a:	ce3e                	sw	a5,28(sp)
     52c:	10000793          	li	a5,256
     530:	4712                	lw	a4,4(sp)
     532:	4502                	lw	a0,0(sp)
     534:	d03e                	sw	a5,32(sp)
     536:	40000793          	li	a5,1024
     53a:	d23e                	sw	a5,36(sp)
     53c:	02000793          	li	a5,32
     540:	d43e                	sw	a5,40(sp)
     542:	002c                	addi	a1,sp,8
     544:	678d                	lui	a5,0x3
     546:	c43a                	sw	a4,8(sp)
     548:	c622                	sw	s0,12(sp)
     54a:	ca26                	sw	s1,20(sp)
     54c:	d63e                	sw	a5,44(sp)
     54e:	c802                	sw	zero,16(sp)
     550:	cc02                	sw	zero,24(sp)
     552:	d802                	sw	zero,48(sp)
     554:	383000ef          	jal	ra,10d6 <DMA_Init>
     558:	03410113          	addi	sp,sp,52
     55c:	be99                	j	b2 <__riscv_restore_0>

0000055e <printChar>:
     55e:	b4bff2ef          	jal	t0,a8 <__riscv_save_0>
     562:	842a                	mv	s0,a0
     564:	400144b7          	lui	s1,0x40014
     568:	400147b7          	lui	a5,0x40014
     56c:	04000593          	li	a1,64
     570:	80078513          	addi	a0,a5,-2048 # 40013800 <_eusrstack+0x20012800>
     574:	4aa010ef          	jal	ra,1a1e <USART_GetFlagStatus>
     578:	d965                	beqz	a0,568 <printChar+0xa>
     57a:	01041593          	slli	a1,s0,0x10
     57e:	81c1                	srli	a1,a1,0x10
     580:	80048513          	addi	a0,s1,-2048 # 40013800 <_eusrstack+0x20012800>
     584:	492010ef          	jal	ra,1a16 <USART_SendData>
     588:	b62d                	j	b2 <__riscv_restore_0>

0000058a <printString>:
     58a:	b1fff2ef          	jal	t0,a8 <__riscv_save_0>
     58e:	842a                	mv	s0,a0
     590:	00040503          	lb	a0,0(s0)
     594:	e111                	bnez	a0,598 <printString+0xe>
     596:	be31                	j	b2 <__riscv_restore_0>
     598:	0405                	addi	s0,s0,1
     59a:	37d1                	jal	55e <printChar>
     59c:	bfd5                	j	590 <printString+0x6>

0000059e <printInt>:
     59e:	b0bff2ef          	jal	t0,a8 <__riscv_save_0>
     5a2:	1141                	addi	sp,sp,-16
     5a4:	e511                	bnez	a0,5b0 <printInt+0x12>
     5a6:	03000513          	li	a0,48
     5aa:	3f55                	jal	55e <printChar>
     5ac:	0141                	addi	sp,sp,16
     5ae:	b611                	j	b2 <__riscv_restore_0>
     5b0:	842a                	mv	s0,a0
     5b2:	00055763          	bgez	a0,5c0 <printInt+0x22>
     5b6:	02d00513          	li	a0,45
     5ba:	3755                	jal	55e <printChar>
     5bc:	40800433          	neg	s0,s0
     5c0:	0058                	addi	a4,sp,4
     5c2:	4481                	li	s1,0
     5c4:	45a9                	li	a1,10
     5c6:	8522                	mv	a0,s0
     5c8:	c03a                	sw	a4,0(sp)
     5ca:	36a9                	jal	114 <__modsi3>
     5cc:	4702                	lw	a4,0(sp)
     5ce:	03050513          	addi	a0,a0,48
     5d2:	45a9                	li	a1,10
     5d4:	a308                	sb	a0,0(a4)
     5d6:	8522                	mv	a0,s0
     5d8:	34d5                	jal	bc <__divsi3>
     5da:	4702                	lw	a4,0(sp)
     5dc:	0485                	addi	s1,s1,1
     5de:	842a                	mv	s0,a0
     5e0:	0705                	addi	a4,a4,1 # e000e001 <_eusrstack+0xc000d001>
     5e2:	f16d                	bnez	a0,5c4 <printInt+0x26>
     5e4:	14fd                	addi	s1,s1,-1
     5e6:	577d                	li	a4,-1
     5e8:	fce482e3          	beq	s1,a4,5ac <printInt+0xe>
     5ec:	00448793          	addi	a5,s1,4
     5f0:	00278733          	add	a4,a5,sp
     5f4:	00070503          	lb	a0,0(a4)
     5f8:	379d                	jal	55e <printChar>
     5fa:	b7ed                	j	5e4 <printInt+0x46>

000005fc <printFloat>:
     5fc:	aadff2ef          	jal	t0,a8 <__riscv_save_0>
     600:	1171                	addi	sp,sp,-4
     602:	84aa                	mv	s1,a0
     604:	4405                	li	s0,1
     606:	47a9                	li	a5,10
     608:	e9b1                	bnez	a1,65c <printFloat+0x60>
     60a:	8526                	mv	a0,s1
     60c:	4c4020ef          	jal	ra,2ad0 <__fixsfsi>
     610:	c02a                	sw	a0,0(sp)
     612:	51e020ef          	jal	ra,2b30 <__floatsisf>
     616:	85aa                	mv	a1,a0
     618:	8526                	mv	a0,s1
     61a:	0fa020ef          	jal	ra,2714 <__subsf3>
     61e:	84aa                	mv	s1,a0
     620:	8522                	mv	a0,s0
     622:	50e020ef          	jal	ra,2b30 <__floatsisf>
     626:	85aa                	mv	a1,a0
     628:	8526                	mv	a0,s1
     62a:	60f010ef          	jal	ra,2438 <__mulsf3>
     62e:	4a2020ef          	jal	ra,2ad0 <__fixsfsi>
     632:	84aa                	mv	s1,a0
     634:	4502                	lw	a0,0(sp)
     636:	37a5                	jal	59e <printInt>
     638:	02e00513          	li	a0,46
     63c:	370d                	jal	55e <printChar>
     63e:	c49d                	beqz	s1,66c <printFloat+0x70>
     640:	41f4d793          	srai	a5,s1,0x1f
     644:	8cbd                	xor	s1,s1,a5
     646:	8c9d                	sub	s1,s1,a5
     648:	8522                	mv	a0,s0
     64a:	45a9                	li	a1,10
     64c:	3c85                	jal	bc <__divsi3>
     64e:	842a                	mv	s0,a0
     650:	00a4ca63          	blt	s1,a0,664 <printFloat+0x68>
     654:	8526                	mv	a0,s1
     656:	37a1                	jal	59e <printInt>
     658:	0111                	addi	sp,sp,4
     65a:	bca1                	j	b2 <__riscv_restore_0>
     65c:	02f40433          	mul	s0,s0,a5
     660:	15fd                	addi	a1,a1,-1
     662:	b75d                	j	608 <printFloat+0xc>
     664:	03000513          	li	a0,48
     668:	3ddd                	jal	55e <printChar>
     66a:	bff9                	j	648 <printFloat+0x4c>
     66c:	03000513          	li	a0,48
     670:	35fd                	jal	55e <printChar>
     672:	b7dd                	j	658 <printFloat+0x5c>

00000674 <main>:
     674:	a35ff2ef          	jal	t0,a8 <__riscv_save_0>
     678:	1121                	addi	sp,sp,-24
     67a:	4505                	li	a0,1
     67c:	07a010ef          	jal	ra,16f6 <NVIC_PriorityGroupConfig>
     680:	788000ef          	jal	ra,e08 <SystemCoreClockUpdate>
     684:	3a4010ef          	jal	ra,1a28 <Delay_Init>
     688:	6571                	lui	a0,0x1c
     68a:	20050513          	addi	a0,a0,512 # 1c200 <_data_lma+0x19098>
     68e:	3ca010ef          	jal	ra,1a58 <USART_Printf_Init>
     692:	650d                	lui	a0,0x3
     694:	d1850513          	addi	a0,a0,-744 # 2d18 <__errno+0x6>
     698:	3dcd                	jal	58a <printString>
     69a:	650d                	lui	a0,0x3
     69c:	d2450513          	addi	a0,a0,-732 # 2d24 <__errno+0x12>
     6a0:	35ed                	jal	58a <printString>
     6a2:	200007b7          	lui	a5,0x20000
     6a6:	0347a503          	lw	a0,52(a5) # 20000034 <SystemCoreClock>
     6aa:	40020437          	lui	s0,0x40020
     6ae:	3dc5                	jal	59e <printInt>
     6b0:	650d                	lui	a0,0x3
     6b2:	d2050513          	addi	a0,a0,-736 # 2d20 <__errno+0xe>
     6b6:	3dd1                	jal	58a <printString>
     6b8:	2135                	jal	ae4 <ssd1306Init>
     6ba:	4501                	li	a0,0
     6bc:	21a1                	jal	b04 <ssd1306Fill>
     6be:	660d                	lui	a2,0x3
     6c0:	d3060613          	addi	a2,a2,-720 # 2d30 <__errno+0x1e>
     6c4:	4581                	li	a1,0
     6c6:	4501                	li	a0,0
     6c8:	29e1                	jal	ba0 <ssd1306Print>
     6ca:	3465                	jal	172 <ADC_Function_Init>
     6cc:	20000637          	lui	a2,0x20000
     6d0:	400125b7          	lui	a1,0x40012
     6d4:	12c00693          	li	a3,300
     6d8:	13060613          	addi	a2,a2,304 # 20000130 <adc_buf>
     6dc:	44c58593          	addi	a1,a1,1100 # 4001244c <_eusrstack+0x2001144c>
     6e0:	00840513          	addi	a0,s0,8 # 40020008 <_eusrstack+0x2001f008>
     6e4:	3d29                	jal	4fe <DMA_Tx_Init>
     6e6:	e000e7b7          	lui	a5,0xe000e
     6ea:	00400737          	lui	a4,0x400
     6ee:	10e7a023          	sw	a4,256(a5) # e000e100 <_eusrstack+0xc000d100>
     6f2:	4605                	li	a2,1
     6f4:	4589                	li	a1,2
     6f6:	00840513          	addi	a0,s0,8
     6fa:	229000ef          	jal	ra,1122 <DMA_ITConfig>
     6fe:	4605                	li	a2,1
     700:	4591                	li	a1,4
     702:	00840513          	addi	a0,s0,8
     706:	21d000ef          	jal	ra,1122 <DMA_ITConfig>
     70a:	4585                	li	a1,1
     70c:	00840513          	addi	a0,s0,8
     710:	1ff000ef          	jal	ra,110e <DMA_Cmd>
     714:	459d                	li	a1,7
     716:	3e700513          	li	a0,999
     71a:	3681                	jal	25a <TIM1_PWM_In>
     71c:	678d                	lui	a5,0x3
     71e:	dc87a703          	lw	a4,-568(a5) # 2dc8 <__errno+0xb6>
     722:	dcc7a783          	lw	a5,-564(a5)
     726:	c43a                	sw	a4,8(sp)
     728:	c63e                	sw	a5,12(sp)
     72a:	8401c783          	lbu	a5,-1984(gp) # 20000100 <adc_f_calc>
     72e:	dff5                	beqz	a5,72a <main+0xb6>
     730:	8681a483          	lw	s1,-1944(gp) # 20000128 <adc_sum1_r>
     734:	8601a783          	lw	a5,-1952(gp) # 20000120 <adc_sum2_r>
     738:	8501a503          	lw	a0,-1968(gp) # 20000110 <adc_sum_sq1_r>
     73c:	640d                	lui	s0,0x3
     73e:	c03e                	sw	a5,0(sp)
     740:	3f0020ef          	jal	ra,2b30 <__floatsisf>
     744:	670d                	lui	a4,0x3
     746:	db472583          	lw	a1,-588(a4) # 2db4 <__errno+0xa2>
     74a:	4ef010ef          	jal	ra,2438 <__mulsf3>
     74e:	db842583          	lw	a1,-584(s0) # 2db8 <__errno+0xa6>
     752:	10b010ef          	jal	ra,205c <__divsf3>
     756:	366010ef          	jal	ra,1abc <sqrtf>
     75a:	c22a                	sw	a0,4(sp)
     75c:	8481a503          	lw	a0,-1976(gp) # 20000108 <adc_sum_sq2_r>
     760:	3d0020ef          	jal	ra,2b30 <__floatsisf>
     764:	670d                	lui	a4,0x3
     766:	db472583          	lw	a1,-588(a4) # 2db4 <__errno+0xa2>
     76a:	4cf010ef          	jal	ra,2438 <__mulsf3>
     76e:	db842583          	lw	a1,-584(s0)
     772:	0eb010ef          	jal	ra,205c <__divsf3>
     776:	346010ef          	jal	ra,1abc <sqrtf>
     77a:	8581a783          	lw	a5,-1960(gp) # 20000118 <adc_prod1_2_r>
     77e:	c82a                	sw	a0,16(sp)
     780:	8526                	mv	a0,s1
     782:	ca3e                	sw	a5,20(sp)
     784:	3ac020ef          	jal	ra,2b30 <__floatsisf>
     788:	db842583          	lw	a1,-584(s0)
     78c:	0d1010ef          	jal	ra,205c <__divsf3>
     790:	678d                	lui	a5,0x3
     792:	dbc7a583          	lw	a1,-580(a5) # 2dbc <__errno+0xaa>
     796:	4a3010ef          	jal	ra,2438 <__mulsf3>
     79a:	82a1a823          	sw	a0,-2000(gp) # 200000f0 <v_adc1>
     79e:	4502                	lw	a0,0(sp)
     7a0:	390020ef          	jal	ra,2b30 <__floatsisf>
     7a4:	db842583          	lw	a1,-584(s0)
     7a8:	0b5010ef          	jal	ra,205c <__divsf3>
     7ac:	630d                	lui	t1,0x3
     7ae:	dc032583          	lw	a1,-576(t1) # 2dc0 <__errno+0xae>
     7b2:	487010ef          	jal	ra,2438 <__mulsf3>
     7b6:	678d                	lui	a5,0x3
     7b8:	dbc7a583          	lw	a1,-580(a5) # 2dbc <__errno+0xaa>
     7bc:	82a1a423          	sw	a0,-2008(gp) # 200000e8 <v_adc2>
     7c0:	4512                	lw	a0,4(sp)
     7c2:	477010ef          	jal	ra,2438 <__mulsf3>
     7c6:	630d                	lui	t1,0x3
     7c8:	dc032583          	lw	a1,-576(t1) # 2dc0 <__errno+0xae>
     7cc:	82a1aa23          	sw	a0,-1996(gp) # 200000f4 <v_rms1>
     7d0:	4542                	lw	a0,16(sp)
     7d2:	467010ef          	jal	ra,2438 <__mulsf3>
     7d6:	82a1a623          	sw	a0,-2004(gp) # 200000ec <v_rms2>
     7da:	4552                	lw	a0,20(sp)
     7dc:	354020ef          	jal	ra,2b30 <__floatsisf>
     7e0:	670d                	lui	a4,0x3
     7e2:	db472583          	lw	a1,-588(a4) # 2db4 <__errno+0xa2>
     7e6:	453010ef          	jal	ra,2438 <__mulsf3>
     7ea:	db842583          	lw	a1,-584(s0)
     7ee:	640d                	lui	s0,0x3
     7f0:	06d010ef          	jal	ra,205c <__divsf3>
     7f4:	678d                	lui	a5,0x3
     7f6:	dbc7a583          	lw	a1,-580(a5) # 2dbc <__errno+0xaa>
     7fa:	43f010ef          	jal	ra,2438 <__mulsf3>
     7fe:	630d                	lui	t1,0x3
     800:	dc032583          	lw	a1,-576(t1) # 2dc0 <__errno+0xae>
     804:	435010ef          	jal	ra,2438 <__mulsf3>
     808:	82a1a223          	sw	a0,-2012(gp) # 200000e4 <p_adc1_2>
     80c:	650d                	lui	a0,0x3
     80e:	d3850513          	addi	a0,a0,-712 # 2d38 <__errno+0x26>
     812:	3ba5                	jal	58a <printString>
     814:	8501a503          	lw	a0,-1968(gp) # 20000110 <adc_sum_sq1_r>
     818:	3359                	jal	59e <printInt>
     81a:	650d                	lui	a0,0x3
     81c:	d4050513          	addi	a0,a0,-704 # 2d40 <__errno+0x2e>
     820:	33ad                	jal	58a <printString>
     822:	200007b7          	lui	a5,0x20000
     826:	0047a503          	lw	a0,4(a5) # 20000004 <m_adc_1>
     82a:	3b95                	jal	59e <printInt>
     82c:	d2040513          	addi	a0,s0,-736 # 2d20 <__errno+0xe>
     830:	3ba9                	jal	58a <printString>
     832:	678d                	lui	a5,0x3
     834:	d4878513          	addi	a0,a5,-696 # 2d48 <__errno+0x36>
     838:	3b89                	jal	58a <printString>
     83a:	8301a503          	lw	a0,-2000(gp) # 200000f0 <v_adc1>
     83e:	458d                	li	a1,3
     840:	3b75                	jal	5fc <printFloat>
     842:	650d                	lui	a0,0x3
     844:	d5050513          	addi	a0,a0,-688 # 2d50 <__errno+0x3e>
     848:	3389                	jal	58a <printString>
     84a:	8341a503          	lw	a0,-1996(gp) # 200000f4 <v_rms1>
     84e:	458d                	li	a1,3
     850:	3375                	jal	5fc <printFloat>
     852:	d2040513          	addi	a0,s0,-736
     856:	3b15                	jal	58a <printString>
     858:	650d                	lui	a0,0x3
     85a:	d5850513          	addi	a0,a0,-680 # 2d58 <__errno+0x46>
     85e:	3335                	jal	58a <printString>
     860:	8481a503          	lw	a0,-1976(gp) # 20000108 <adc_sum_sq2_r>
     864:	3b2d                	jal	59e <printInt>
     866:	650d                	lui	a0,0x3
     868:	d6050513          	addi	a0,a0,-672 # 2d60 <__errno+0x4e>
     86c:	3b39                	jal	58a <printString>
     86e:	20000737          	lui	a4,0x20000
     872:	00072503          	lw	a0,0(a4) # 20000000 <m_adc_2>
     876:	3325                	jal	59e <printInt>
     878:	d2040513          	addi	a0,s0,-736
     87c:	3339                	jal	58a <printString>
     87e:	678d                	lui	a5,0x3
     880:	d4878513          	addi	a0,a5,-696 # 2d48 <__errno+0x36>
     884:	3319                	jal	58a <printString>
     886:	8281a503          	lw	a0,-2008(gp) # 200000e8 <v_adc2>
     88a:	458d                	li	a1,3
     88c:	3b85                	jal	5fc <printFloat>
     88e:	650d                	lui	a0,0x3
     890:	d6850513          	addi	a0,a0,-664 # 2d68 <__errno+0x56>
     894:	39dd                	jal	58a <printString>
     896:	82c1a503          	lw	a0,-2004(gp) # 200000ec <v_rms2>
     89a:	458d                	li	a1,3
     89c:	3385                	jal	5fc <printFloat>
     89e:	d2040513          	addi	a0,s0,-736
     8a2:	31e5                	jal	58a <printString>
     8a4:	8341a783          	lw	a5,-1996(gp) # 200000f4 <v_rms1>
     8a8:	853e                	mv	a0,a5
     8aa:	c03e                	sw	a5,0(sp)
     8ac:	358020ef          	jal	ra,2c04 <__extendsfdf2>
     8b0:	4622                	lw	a2,8(sp)
     8b2:	46b2                	lw	a3,12(sp)
     8b4:	368010ef          	jal	ra,1c1c <__gedf2>
     8b8:	0ca05f63          	blez	a0,996 <main+0x322>
     8bc:	82c1a783          	lw	a5,-2004(gp) # 200000ec <v_rms2>
     8c0:	853e                	mv	a0,a5
     8c2:	c23e                	sw	a5,4(sp)
     8c4:	340020ef          	jal	ra,2c04 <__extendsfdf2>
     8c8:	4622                	lw	a2,8(sp)
     8ca:	46b2                	lw	a3,12(sp)
     8cc:	350010ef          	jal	ra,1c1c <__gedf2>
     8d0:	0ca05363          	blez	a0,996 <main+0x322>
     8d4:	8241a403          	lw	s0,-2012(gp) # 200000e4 <p_adc1_2>
     8d8:	00141513          	slli	a0,s0,0x1
     8dc:	8105                	srli	a0,a0,0x1
     8de:	326020ef          	jal	ra,2c04 <__extendsfdf2>
     8e2:	678d                	lui	a5,0x3
     8e4:	dd07a603          	lw	a2,-560(a5) # 2dd0 <__errno+0xbe>
     8e8:	dd47a683          	lw	a3,-556(a5)
     8ec:	330010ef          	jal	ra,1c1c <__gedf2>
     8f0:	0aa05363          	blez	a0,996 <main+0x322>
     8f4:	4592                	lw	a1,4(sp)
     8f6:	4502                	lw	a0,0(sp)
     8f8:	341010ef          	jal	ra,2438 <__mulsf3>
     8fc:	85aa                	mv	a1,a0
     8fe:	8522                	mv	a0,s0
     900:	75c010ef          	jal	ra,205c <__divsf3>
     904:	82a1a023          	sw	a0,-2016(gp) # 200000e0 <fp_p>
     908:	650d                	lui	a0,0x3
     90a:	d7050513          	addi	a0,a0,-656 # 2d70 <__errno+0x5e>
     90e:	39b5                	jal	58a <printString>
     910:	8241a503          	lw	a0,-2012(gp) # 200000e4 <p_adc1_2>
     914:	458d                	li	a1,3
     916:	31dd                	jal	5fc <printFloat>
     918:	650d                	lui	a0,0x3
     91a:	d7450513          	addi	a0,a0,-652 # 2d74 <__errno+0x62>
     91e:	31b5                	jal	58a <printString>
     920:	8201a503          	lw	a0,-2016(gp) # 200000e0 <fp_p>
     924:	458d                	li	a1,3
     926:	39d9                	jal	5fc <printFloat>
     928:	650d                	lui	a0,0x3
     92a:	d7c50513          	addi	a0,a0,-644 # 2d7c <__errno+0x6a>
     92e:	39b1                	jal	58a <printString>
     930:	660d                	lui	a2,0x3
     932:	d8460613          	addi	a2,a2,-636 # 2d84 <__errno+0x72>
     936:	4581                	li	a1,0
     938:	4501                	li	a0,0
     93a:	249d                	jal	ba0 <ssd1306Print>
     93c:	8341a603          	lw	a2,-1996(gp) # 200000f4 <v_rms1>
     940:	468d                	li	a3,3
     942:	45b1                	li	a1,12
     944:	4501                	li	a0,0
     946:	2441                	jal	bc6 <ssd1306PrintFloat>
     948:	660d                	lui	a2,0x3
     94a:	d9060613          	addi	a2,a2,-624 # 2d90 <__errno+0x7e>
     94e:	4581                	li	a1,0
     950:	4505                	li	a0,1
     952:	24b9                	jal	ba0 <ssd1306Print>
     954:	82c1a603          	lw	a2,-2004(gp) # 200000ec <v_rms2>
     958:	4685                	li	a3,1
     95a:	45b1                	li	a1,12
     95c:	4505                	li	a0,1
     95e:	24a5                	jal	bc6 <ssd1306PrintFloat>
     960:	660d                	lui	a2,0x3
     962:	d9c60613          	addi	a2,a2,-612 # 2d9c <__errno+0x8a>
     966:	4581                	li	a1,0
     968:	4509                	li	a0,2
     96a:	2c1d                	jal	ba0 <ssd1306Print>
     96c:	8241a603          	lw	a2,-2012(gp) # 200000e4 <p_adc1_2>
     970:	4689                	li	a3,2
     972:	45b1                	li	a1,12
     974:	4509                	li	a0,2
     976:	2c81                	jal	bc6 <ssd1306PrintFloat>
     978:	660d                	lui	a2,0x3
     97a:	da860613          	addi	a2,a2,-600 # 2da8 <__errno+0x96>
     97e:	4581                	li	a1,0
     980:	450d                	li	a0,3
     982:	2c39                	jal	ba0 <ssd1306Print>
     984:	8201a603          	lw	a2,-2016(gp) # 200000e0 <fp_p>
     988:	4689                	li	a3,2
     98a:	45c9                	li	a1,18
     98c:	450d                	li	a0,3
     98e:	2c25                	jal	bc6 <ssd1306PrintFloat>
     990:	84018023          	sb	zero,-1984(gp) # 20000100 <adc_f_calc>
     994:	bb59                	j	72a <main+0xb6>
     996:	00000513          	li	a0,0
     99a:	b7ad                	j	904 <main+0x290>

0000099c <OledI2CWriteData>:
     99c:	f0cff2ef          	jal	t0,a8 <__riscv_save_0>
     9a0:	1171                	addi	sp,sp,-4
     9a2:	842a                	mv	s0,a0
     9a4:	c02e                	sw	a1,0(sp)
     9a6:	400054b7          	lui	s1,0x40005
     9aa:	400057b7          	lui	a5,0x40005
     9ae:	000205b7          	lui	a1,0x20
     9b2:	40078513          	addi	a0,a5,1024 # 40005400 <_eusrstack+0x20004400>
     9b6:	50f000ef          	jal	ra,16c4 <I2C_GetFlagStatus>
     9ba:	f965                	bnez	a0,9aa <OledI2CWriteData+0xe>
     9bc:	4585                	li	a1,1
     9be:	40048513          	addi	a0,s1,1024 # 40005400 <_eusrstack+0x20004400>
     9c2:	48d000ef          	jal	ra,164e <I2C_GenerateSTART>
     9c6:	000304b7          	lui	s1,0x30
     9ca:	00148593          	addi	a1,s1,1 # 30001 <_data_lma+0x2ce99>
     9ce:	400054b7          	lui	s1,0x40005
     9d2:	40048513          	addi	a0,s1,1024 # 40005400 <_eusrstack+0x20004400>
     9d6:	4d9000ef          	jal	ra,16ae <I2C_CheckEvent>
     9da:	000307b7          	lui	a5,0x30
     9de:	00178593          	addi	a1,a5,1 # 30001 <_data_lma+0x2ce99>
     9e2:	d575                	beqz	a0,9ce <OledI2CWriteData+0x32>
     9e4:	40048513          	addi	a0,s1,1024
     9e8:	4601                	li	a2,0
     9ea:	07800593          	li	a1,120
     9ee:	000704b7          	lui	s1,0x70
     9f2:	4af000ef          	jal	ra,16a0 <I2C_Send7bitAddress>
     9f6:	08248493          	addi	s1,s1,130 # 70082 <_data_lma+0x6cf1a>
     9fa:	40005537          	lui	a0,0x40005
     9fe:	85a6                	mv	a1,s1
     a00:	40050513          	addi	a0,a0,1024 # 40005400 <_eusrstack+0x20004400>
     a04:	4ab000ef          	jal	ra,16ae <I2C_CheckEvent>
     a08:	d96d                	beqz	a0,9fa <OledI2CWriteData+0x5e>
     a0a:	4782                	lw	a5,0(sp)
     a0c:	00f404b3          	add	s1,s0,a5
     a10:	200c                	lbu	a1,0(s0)
     a12:	400057b7          	lui	a5,0x40005
     a16:	40078513          	addi	a0,a5,1024 # 40005400 <_eusrstack+0x20004400>
     a1a:	483000ef          	jal	ra,169c <I2C_SendData>
     a1e:	000705b7          	lui	a1,0x70
     a22:	08458593          	addi	a1,a1,132 # 70084 <_data_lma+0x6cf1c>
     a26:	400057b7          	lui	a5,0x40005
     a2a:	40078513          	addi	a0,a5,1024 # 40005400 <_eusrstack+0x20004400>
     a2e:	481000ef          	jal	ra,16ae <I2C_CheckEvent>
     a32:	000707b7          	lui	a5,0x70
     a36:	08478593          	addi	a1,a5,132 # 70084 <_data_lma+0x6cf1c>
     a3a:	d575                	beqz	a0,a26 <OledI2CWriteData+0x8a>
     a3c:	0405                	addi	s0,s0,1
     a3e:	fc9419e3          	bne	s0,s1,a10 <OledI2CWriteData+0x74>
     a42:	400057b7          	lui	a5,0x40005
     a46:	4585                	li	a1,1
     a48:	40078513          	addi	a0,a5,1024 # 40005400 <_eusrstack+0x20004400>
     a4c:	41d000ef          	jal	ra,1668 <I2C_GenerateSTOP>
     a50:	0111                	addi	sp,sp,4
     a52:	e60ff06f          	j	b2 <__riscv_restore_0>

00000a56 <IIC_Init>:
     a56:	e52ff2ef          	jal	t0,a8 <__riscv_save_0>
     a5a:	1111                	addi	sp,sp,-28
     a5c:	84aa                	mv	s1,a0
     a5e:	842e                	mv	s0,a1
     a60:	4545                	li	a0,17
     a62:	4585                	li	a1,1
     a64:	c002                	sw	zero,0(sp)
     a66:	c202                	sw	zero,4(sp)
     a68:	c402                	sw	zero,8(sp)
     a6a:	c602                	sw	zero,12(sp)
     a6c:	c802                	sw	zero,16(sp)
     a6e:	ca02                	sw	zero,20(sp)
     a70:	cc02                	sw	zero,24(sp)
     a72:	5c3000ef          	jal	ra,1834 <RCC_PB2PeriphClockCmd>
     a76:	4585                	li	a1,1
     a78:	00200537          	lui	a0,0x200
     a7c:	5d7000ef          	jal	ra,1852 <RCC_PB1PeriphClockCmd>
     a80:	4791                	li	a5,4
     a82:	807c                	sh	a5,0(sp)
     a84:	4771                	li	a4,28
     a86:	4785                	li	a5,1
     a88:	858a                	mv	a1,sp
     a8a:	40011537          	lui	a0,0x40011
     a8e:	c43a                	sw	a4,8(sp)
     a90:	c23e                	sw	a5,4(sp)
     a92:	2d75                	jal	114e <GPIO_Init>
     a94:	4689                	li	a3,2
     a96:	4771                	li	a4,28
     a98:	4785                	li	a5,1
     a9a:	858a                	mv	a1,sp
     a9c:	40011537          	lui	a0,0x40011
     aa0:	8074                	sh	a3,0(sp)
     aa2:	c43a                	sw	a4,8(sp)
     aa4:	c23e                	sw	a5,4(sp)
     aa6:	2565                	jal	114e <GPIO_Init>
     aa8:	bfff07b7          	lui	a5,0xbfff0
     aac:	c83e                	sw	a5,16(sp)
     aae:	82e0                	sh	s0,20(sp)
     ab0:	40000793          	li	a5,1024
     ab4:	40005437          	lui	s0,0x40005
     ab8:	83fc                	sh	a5,22(sp)
     aba:	006c                	addi	a1,sp,12
     abc:	6791                	lui	a5,0x4
     abe:	40040513          	addi	a0,s0,1024 # 40005400 <_eusrstack+0x20004400>
     ac2:	84fc                	sh	a5,24(sp)
     ac4:	c626                	sw	s1,12(sp)
     ac6:	293000ef          	jal	ra,1558 <I2C_Init>
     aca:	40040513          	addi	a0,s0,1024
     ace:	4585                	li	a1,1
     ad0:	367000ef          	jal	ra,1636 <I2C_Cmd>
     ad4:	4585                	li	a1,1
     ad6:	40040513          	addi	a0,s0,1024
     ada:	3a9000ef          	jal	ra,1682 <I2C_AcknowledgeConfig>
     ade:	0171                	addi	sp,sp,28
     ae0:	dd2ff06f          	j	b2 <__riscv_restore_0>

00000ae4 <ssd1306Init>:
     ae4:	dc4ff2ef          	jal	t0,a8 <__riscv_save_0>
     ae8:	6561                	lui	a0,0x18
     aea:	07800593          	li	a1,120
     aee:	6a050513          	addi	a0,a0,1696 # 186a0 <_data_lma+0x15538>
     af2:	3795                	jal	a56 <IIC_Init>
     af4:	20000537          	lui	a0,0x20000
     af8:	45ed                	li	a1,27
     afa:	00850513          	addi	a0,a0,8 # 20000008 <ssd1306InitCommand>
     afe:	3d79                	jal	99c <OledI2CWriteData>
     b00:	db2ff06f          	j	b2 <__riscv_restore_0>

00000b04 <ssd1306Fill>:
     b04:	da4ff2ef          	jal	t0,a8 <__riscv_save_0>
     b08:	5f2027b7          	lui	a5,0x5f202
     b0c:	1161                	addi	sp,sp,-8
     b0e:	10078793          	addi	a5,a5,256 # 5f202100 <_eusrstack+0x3f201100>
     b12:	c03e                	sw	a5,0(sp)
     b14:	02200793          	li	a5,34
     b18:	842a                	mv	s0,a0
     b1a:	827c                	sh	a5,4(sp)
     b1c:	459d                	li	a1,7
     b1e:	478d                	li	a5,3
     b20:	850a                	mv	a0,sp
     b22:	835c                	sb	a5,6(sp)
     b24:	3da5                	jal	99c <OledI2CWriteData>
     b26:	04000793          	li	a5,64
     b2a:	80c0                	sb	s0,1(sp)
     b2c:	805c                	sb	a5,0(sp)
     b2e:	10000413          	li	s0,256
     b32:	147d                	addi	s0,s0,-1
     b34:	0442                	slli	s0,s0,0x10
     b36:	4589                	li	a1,2
     b38:	850a                	mv	a0,sp
     b3a:	8041                	srli	s0,s0,0x10
     b3c:	3585                	jal	99c <OledI2CWriteData>
     b3e:	f875                	bnez	s0,b32 <ssd1306Fill+0x2e>
     b40:	0121                	addi	sp,sp,8
     b42:	d70ff06f          	j	b2 <__riscv_restore_0>

00000b46 <ssd1306PrintChar>:
     b46:	d62ff2ef          	jal	t0,a8 <__riscv_save_0>
     b4a:	6789                	lui	a5,0x2
     b4c:	1161                	addi	sp,sp,-8
     b4e:	10078793          	addi	a5,a5,256 # 2100 <__divsf3+0xa4>
     b52:	807c                	sh	a5,0(sp)
     b54:	05f00793          	li	a5,95
     b58:	81dc                	sb	a5,3(sp)
     b5a:	02058593          	addi	a1,a1,32
     b5e:	02200793          	li	a5,34
     b62:	814c                	sb	a1,2(sp)
     b64:	825c                	sb	a5,4(sp)
     b66:	82c8                	sb	a0,5(sp)
     b68:	478d                	li	a5,3
     b6a:	850a                	mv	a0,sp
     b6c:	459d                	li	a1,7
     b6e:	8432                	mv	s0,a2
     b70:	835c                	sb	a5,6(sp)
     b72:	352d                	jal	99c <OledI2CWriteData>
     b74:	04000793          	li	a5,64
     b78:	805c                	sb	a5,0(sp)
     b7a:	1401                	addi	s0,s0,-32
     b7c:	4795                	li	a5,5
     b7e:	02f40433          	mul	s0,s0,a5
     b82:	658d                	lui	a1,0x3
     b84:	dd858593          	addi	a1,a1,-552 # 2dd8 <font>
     b88:	4615                	li	a2,5
     b8a:	00110513          	addi	a0,sp,1
     b8e:	95a2                	add	a1,a1,s0
     b90:	daaff0ef          	jal	ra,13a <memcpy>
     b94:	850a                	mv	a0,sp
     b96:	4599                	li	a1,6
     b98:	3511                	jal	99c <OledI2CWriteData>
     b9a:	0121                	addi	sp,sp,8
     b9c:	d16ff06f          	j	b2 <__riscv_restore_0>

00000ba0 <ssd1306Print>:
     ba0:	d08ff2ef          	jal	t0,a8 <__riscv_save_0>
     ba4:	1171                	addi	sp,sp,-4
     ba6:	842e                	mv	s0,a1
     ba8:	84b2                	mv	s1,a2
     baa:	2090                	lbu	a2,0(s1)
     bac:	e601                	bnez	a2,bb4 <ssd1306Print+0x14>
     bae:	0111                	addi	sp,sp,4
     bb0:	d02ff06f          	j	b2 <__riscv_restore_0>
     bb4:	85a2                	mv	a1,s0
     bb6:	c02a                	sw	a0,0(sp)
     bb8:	0419                	addi	s0,s0,6
     bba:	3771                	jal	b46 <ssd1306PrintChar>
     bbc:	4502                	lw	a0,0(sp)
     bbe:	0485                	addi	s1,s1,1
     bc0:	0ff47413          	zext.b	s0,s0
     bc4:	b7dd                	j	baa <ssd1306Print+0xa>

00000bc6 <ssd1306PrintFloat>:
     bc6:	ce2ff2ef          	jal	t0,a8 <__riscv_save_0>
     bca:	fc810113          	addi	sp,sp,-56
     bce:	4705                	li	a4,1
     bd0:	c03a                	sw	a4,0(sp)
     bd2:	c22a                	sw	a0,4(sp)
     bd4:	c42e                	sw	a1,8(sp)
     bd6:	8432                	mv	s0,a2
     bd8:	84b6                	mv	s1,a3
     bda:	87b6                	mv	a5,a3
     bdc:	4729                	li	a4,10
     bde:	e3a1                	bnez	a5,c1e <ssd1306PrintFloat+0x58>
     be0:	8522                	mv	a0,s0
     be2:	6ef010ef          	jal	ra,2ad0 <__fixsfsi>
     be6:	c62a                	sw	a0,12(sp)
     be8:	749010ef          	jal	ra,2b30 <__floatsisf>
     bec:	85aa                	mv	a1,a0
     bee:	8522                	mv	a0,s0
     bf0:	325010ef          	jal	ra,2714 <__subsf3>
     bf4:	842a                	mv	s0,a0
     bf6:	4502                	lw	a0,0(sp)
     bf8:	739010ef          	jal	ra,2b30 <__floatsisf>
     bfc:	85aa                	mv	a1,a0
     bfe:	8522                	mv	a0,s0
     c00:	039010ef          	jal	ra,2438 <__mulsf3>
     c04:	6cd010ef          	jal	ra,2ad0 <__fixsfsi>
     c08:	4632                	lw	a2,12(sp)
     c0a:	87aa                	mv	a5,a0
     c0c:	ee19                	bnez	a2,c2a <ssd1306PrintFloat+0x64>
     c0e:	03000713          	li	a4,48
     c12:	02e10423          	sb	a4,40(sp)
     c16:	02910713          	addi	a4,sp,41
     c1a:	4681                	li	a3,0
     c1c:	a891                	j	c70 <ssd1306PrintFloat+0xaa>
     c1e:	4682                	lw	a3,0(sp)
     c20:	17fd                	addi	a5,a5,-1
     c22:	02e686b3          	mul	a3,a3,a4
     c26:	c036                	sw	a3,0(sp)
     c28:	bf5d                	j	bde <ssd1306PrintFloat+0x18>
     c2a:	1038                	addi	a4,sp,40
     c2c:	fe0657e3          	bgez	a2,c1a <ssd1306PrintFloat+0x54>
     c30:	02d00713          	li	a4,45
     c34:	02e10423          	sb	a4,40(sp)
     c38:	40c00633          	neg	a2,a2
     c3c:	bfe9                	j	c16 <ssd1306PrintFloat+0x50>
     c3e:	ca3e                	sw	a5,20(sp)
     c40:	45a9                	li	a1,10
     c42:	01c68793          	addi	a5,a3,28
     c46:	8532                	mv	a0,a2
     c48:	00278433          	add	s0,a5,sp
     c4c:	cc3a                	sw	a4,24(sp)
     c4e:	c836                	sw	a3,16(sp)
     c50:	c632                	sw	a2,12(sp)
     c52:	cc2ff0ef          	jal	ra,114 <__modsi3>
     c56:	4632                	lw	a2,12(sp)
     c58:	03050513          	addi	a0,a0,48
     c5c:	a008                	sb	a0,0(s0)
     c5e:	45a9                	li	a1,10
     c60:	8532                	mv	a0,a2
     c62:	c5aff0ef          	jal	ra,bc <__divsi3>
     c66:	46c2                	lw	a3,16(sp)
     c68:	47d2                	lw	a5,20(sp)
     c6a:	4762                	lw	a4,24(sp)
     c6c:	862a                	mv	a2,a0
     c6e:	0685                	addi	a3,a3,1
     c70:	f679                	bnez	a2,c3e <ssd1306PrintFloat+0x78>
     c72:	85b6                	mv	a1,a3
     c74:	853a                	mv	a0,a4
     c76:	537d                	li	t1,-1
     c78:	15fd                	addi	a1,a1,-1
     c7a:	0505                	addi	a0,a0,1
     c7c:	02659e63          	bne	a1,t1,cb8 <ssd1306PrintFloat+0xf2>
     c80:	00168413          	addi	s0,a3,1
     c84:	943a                	add	s0,s0,a4
     c86:	9736                	add	a4,a4,a3
     c88:	02e00693          	li	a3,46
     c8c:	a314                	sb	a3,0(a4)
     c8e:	ef95                	bnez	a5,cca <ssd1306PrintFloat+0x104>
     c90:	0004d363          	bgez	s1,c96 <ssd1306PrintFloat+0xd0>
     c94:	4481                	li	s1,0
     c96:	8522                	mv	a0,s0
     c98:	8626                	mv	a2,s1
     c9a:	03000593          	li	a1,48
     c9e:	cb2ff0ef          	jal	ra,150 <memset>
     ca2:	9426                	add	s0,s0,s1
     ca4:	45a2                	lw	a1,8(sp)
     ca6:	4512                	lw	a0,4(sp)
     ca8:	1030                	addi	a2,sp,40
     caa:	00040023          	sb	zero,0(s0)
     cae:	3dcd                	jal	ba0 <ssd1306Print>
     cb0:	03810113          	addi	sp,sp,56
     cb4:	bfeff06f          	j	b2 <__riscv_restore_0>
     cb8:	01c58413          	addi	s0,a1,28
     cbc:	002402b3          	add	t0,s0,sp
     cc0:	0002c283          	lbu	t0,0(t0)
     cc4:	fe550fa3          	sb	t0,-1(a0)
     cc8:	bf45                	j	c78 <ssd1306PrintFloat+0xb2>
     cca:	41f7d713          	srai	a4,a5,0x1f
     cce:	4502                	lw	a0,0(sp)
     cd0:	8fb9                	xor	a5,a5,a4
     cd2:	8f99                	sub	a5,a5,a4
     cd4:	45a9                	li	a1,10
     cd6:	c832                	sw	a2,16(sp)
     cd8:	c63e                	sw	a5,12(sp)
     cda:	be2ff0ef          	jal	ra,bc <__divsi3>
     cde:	47b2                	lw	a5,12(sp)
     ce0:	4642                	lw	a2,16(sp)
     ce2:	03000493          	li	s1,48
     ce6:	02a7cf63          	blt	a5,a0,d24 <ssd1306PrintFloat+0x15e>
     cea:	0864                	addi	s1,sp,28
     cec:	0605                	addi	a2,a2,1
     cee:	45a9                	li	a1,10
     cf0:	853e                	mv	a0,a5
     cf2:	c632                	sw	a2,12(sp)
     cf4:	c03e                	sw	a5,0(sp)
     cf6:	c1eff0ef          	jal	ra,114 <__modsi3>
     cfa:	4782                	lw	a5,0(sp)
     cfc:	03050513          	addi	a0,a0,48
     d00:	a088                	sb	a0,0(s1)
     d02:	45a9                	li	a1,10
     d04:	853e                	mv	a0,a5
     d06:	bb6ff0ef          	jal	ra,bc <__divsi3>
     d0a:	4632                	lw	a2,12(sp)
     d0c:	87aa                	mv	a5,a0
     d0e:	0485                	addi	s1,s1,1
     d10:	0874                	addi	a3,sp,28
     d12:	fd69                	bnez	a0,cec <ssd1306PrintFloat+0x126>
     d14:	8722                	mv	a4,s0
     d16:	87b2                	mv	a5,a2
     d18:	55fd                	li	a1,-1
     d1a:	17fd                	addi	a5,a5,-1
     d1c:	00b79e63          	bne	a5,a1,d38 <ssd1306PrintFloat+0x172>
     d20:	9432                	add	s0,s0,a2
     d22:	b749                	j	ca4 <ssd1306PrintFloat+0xde>
     d24:	45a9                	li	a1,10
     d26:	a004                	sb	s1,0(s0)
     d28:	c632                	sw	a2,12(sp)
     d2a:	c03e                	sw	a5,0(sp)
     d2c:	b90ff0ef          	jal	ra,bc <__divsi3>
     d30:	0405                	addi	s0,s0,1
     d32:	4632                	lw	a2,12(sp)
     d34:	4782                	lw	a5,0(sp)
     d36:	bf45                	j	ce6 <ssd1306PrintFloat+0x120>
     d38:	00f68533          	add	a0,a3,a5
     d3c:	2108                	lbu	a0,0(a0)
     d3e:	0705                	addi	a4,a4,1
     d40:	fea70fa3          	sb	a0,-1(a4)
     d44:	bfd9                	j	d1a <ssd1306PrintFloat+0x154>

00000d46 <SystemInit>:
     d46:	b62ff2ef          	jal	t0,a8 <__riscv_save_0>
     d4a:	4689                	li	a3,2
     d4c:	400227b7          	lui	a5,0x40022
     d50:	40021437          	lui	s0,0x40021
     d54:	c394                	sw	a3,0(a5)
     d56:	401c                	lw	a5,0(s0)
     d58:	68ff0737          	lui	a4,0x68ff0
     d5c:	74c1                	lui	s1,0xffff0
     d5e:	0017e793          	ori	a5,a5,1
     d62:	c01c                	sw	a5,0(s0)
     d64:	405c                	lw	a5,4(s0)
     d66:	14fd                	addi	s1,s1,-1 # fffeffff <_eusrstack+0xdffeefff>
     d68:	8ff9                	and	a5,a5,a4
     d6a:	c05c                	sw	a5,4(s0)
     d6c:	401c                	lw	a5,0(s0)
     d6e:	fed70737          	lui	a4,0xfed70
     d72:	176d                	addi	a4,a4,-5 # fed6fffb <_eusrstack+0xded6effb>
     d74:	8ff9                	and	a5,a5,a4
     d76:	00100737          	lui	a4,0x100
     d7a:	8fd9                	or	a5,a5,a4
     d7c:	c01c                	sw	a5,0(s0)
     d7e:	401c                	lw	a5,0(s0)
     d80:	fffc0737          	lui	a4,0xfffc0
     d84:	177d                	addi	a4,a4,-1 # fffbffff <_eusrstack+0xdffbefff>
     d86:	8ff9                	and	a5,a5,a4
     d88:	c01c                	sw	a5,0(s0)
     d8a:	405c                	lw	a5,4(s0)
     d8c:	8fe5                	and	a5,a5,s1
     d8e:	c05c                	sw	a5,4(s0)
     d90:	009d07b7          	lui	a5,0x9d0
     d94:	c41c                	sw	a5,8(s0)
     d96:	4c1c                	lw	a5,24(s0)
     d98:	0207e793          	ori	a5,a5,32
     d9c:	cc1c                	sw	a5,24(s0)
     d9e:	400117b7          	lui	a5,0x40011
     da2:	40078793          	addi	a5,a5,1024 # 40011400 <_eusrstack+0x20010400>
     da6:	4398                	lw	a4,0(a5)
     da8:	f0f77713          	andi	a4,a4,-241
     dac:	c398                	sw	a4,0(a5)
     dae:	4398                	lw	a4,0(a5)
     db0:	08076713          	ori	a4,a4,128
     db4:	c398                	sw	a4,0(a5)
     db6:	cb94                	sw	a3,16(a5)
     db8:	217d                	jal	1266 <GPIO_IPD_Unused>
     dba:	405c                	lw	a5,4(s0)
     dbc:	01000737          	lui	a4,0x1000
     dc0:	020006b7          	lui	a3,0x2000
     dc4:	c05c                	sw	a5,4(s0)
     dc6:	405c                	lw	a5,4(s0)
     dc8:	8fe5                	and	a5,a5,s1
     dca:	c05c                	sw	a5,4(s0)
     dcc:	405c                	lw	a5,4(s0)
     dce:	c05c                	sw	a5,4(s0)
     dd0:	401c                	lw	a5,0(s0)
     dd2:	8fd9                	or	a5,a5,a4
     dd4:	c01c                	sw	a5,0(s0)
     dd6:	400217b7          	lui	a5,0x40021
     dda:	4398                	lw	a4,0(a5)
     ddc:	8f75                	and	a4,a4,a3
     dde:	df75                	beqz	a4,dda <SystemInit+0x94>
     de0:	43d8                	lw	a4,4(a5)
     de2:	400216b7          	lui	a3,0x40021
     de6:	9b71                	andi	a4,a4,-4
     de8:	c3d8                	sw	a4,4(a5)
     dea:	43d8                	lw	a4,4(a5)
     dec:	00276713          	ori	a4,a4,2
     df0:	c3d8                	sw	a4,4(a5)
     df2:	4721                	li	a4,8
     df4:	42dc                	lw	a5,4(a3)
     df6:	8bb1                	andi	a5,a5,12
     df8:	fee79ee3          	bne	a5,a4,df4 <SystemInit+0xae>
     dfc:	400227b7          	lui	a5,0x40022
     e00:	4709                	li	a4,2
     e02:	c398                	sw	a4,0(a5)
     e04:	aaeff06f          	j	b2 <__riscv_restore_0>

00000e08 <SystemCoreClockUpdate>:
     e08:	40021737          	lui	a4,0x40021
     e0c:	435c                	lw	a5,4(a4)
     e0e:	46a1                	li	a3,8
     e10:	8bb1                	andi	a5,a5,12
     e12:	04d79463          	bne	a5,a3,e5a <SystemCoreClockUpdate+0x52>
     e16:	435c                	lw	a5,4(a4)
     e18:	02dc7537          	lui	a0,0x2dc7
     e1c:	c0050513          	addi	a0,a0,-1024 # 2dc6c00 <_data_lma+0x2dc3a98>
     e20:	400216b7          	lui	a3,0x40021
     e24:	42d8                	lw	a4,4(a3)
     e26:	200007b7          	lui	a5,0x20000
     e2a:	02478793          	addi	a5,a5,36 # 20000024 <HBPrescTable>
     e2e:	8311                	srli	a4,a4,0x4
     e30:	8b3d                	andi	a4,a4,15
     e32:	97ba                	add	a5,a5,a4
     e34:	239c                	lbu	a5,0(a5)
     e36:	42d8                	lw	a4,4(a3)
     e38:	0ff7f593          	zext.b	a1,a5
     e3c:	08077713          	andi	a4,a4,128
     e40:	00f557b3          	srl	a5,a0,a5
     e44:	e305                	bnez	a4,e64 <SystemCoreClockUpdate+0x5c>
     e46:	a62ff2ef          	jal	t0,a8 <__riscv_save_0>
     e4a:	a7aff0ef          	jal	ra,c4 <__hidden___udivsi3>
     e4e:	20000737          	lui	a4,0x20000
     e52:	02a72a23          	sw	a0,52(a4) # 20000034 <SystemCoreClock>
     e56:	a5cff06f          	j	b2 <__riscv_restore_0>
     e5a:	016e3537          	lui	a0,0x16e3
     e5e:	60050513          	addi	a0,a0,1536 # 16e3600 <_data_lma+0x16e0498>
     e62:	bf7d                	j	e20 <SystemCoreClockUpdate+0x18>
     e64:	20000737          	lui	a4,0x20000
     e68:	02f72a23          	sw	a5,52(a4) # 20000034 <SystemCoreClock>
     e6c:	8082                	ret

00000e6e <ADC1_IRQHandler>:
     e6e:	a001                	j	e6e <ADC1_IRQHandler>

00000e70 <handle_reset>:
     e70:	20000197          	auipc	gp,0x20000
     e74:	a5018193          	addi	gp,gp,-1456 # 200008c0 <__global_pointer$>
     e78:	74018113          	addi	sp,gp,1856 # 20001000 <_eusrstack>
     e7c:	00002517          	auipc	a0,0x2
     e80:	2ec50513          	addi	a0,a0,748 # 3168 <_data_lma>
     e84:	1ffff597          	auipc	a1,0x1ffff
     e88:	17c58593          	addi	a1,a1,380 # 20000000 <m_adc_2>
     e8c:	81018613          	addi	a2,gp,-2032 # 200000d0 <kc.0>
     e90:	00c5fa63          	bgeu	a1,a2,ea4 <handle_reset+0x34>
     e94:	00052283          	lw	t0,0(a0)
     e98:	0055a023          	sw	t0,0(a1)
     e9c:	0511                	addi	a0,a0,4
     e9e:	0591                	addi	a1,a1,4
     ea0:	fec5eae3          	bltu	a1,a2,e94 <handle_reset+0x24>
     ea4:	81018513          	addi	a0,gp,-2032 # 200000d0 <kc.0>
     ea8:	ad018593          	addi	a1,gp,-1328 # 20000390 <_ebss>
     eac:	00b57763          	bgeu	a0,a1,eba <handle_reset+0x4a>
     eb0:	00052023          	sw	zero,0(a0)
     eb4:	0511                	addi	a0,a0,4
     eb6:	feb56de3          	bltu	a0,a1,eb0 <handle_reset+0x40>
     eba:	6289                	lui	t0,0x2
     ebc:	88028293          	addi	t0,t0,-1920 # 1880 <RCC_PB2PeriphResetCmd+0x10>
     ec0:	30029073          	.4byte	0x30029073
     ec4:	428d                	li	t0,3
     ec6:	80429073          	.4byte	0x80429073
     eca:	fffff297          	auipc	t0,0xfffff
     ece:	13628293          	addi	t0,t0,310 # 0 <_sinit>
     ed2:	0032e293          	ori	t0,t0,3
     ed6:	30529073          	.4byte	0x30529073
     eda:	e6dff0ef          	jal	ra,d46 <SystemInit>
     ede:	fffff297          	auipc	t0,0xfffff
     ee2:	79628293          	addi	t0,t0,1942 # 674 <main>
     ee6:	34129073          	.4byte	0x34129073
     eea:	30200073          	mret

00000eee <ADC_DeInit>:
     eee:	400127b7          	lui	a5,0x40012
     ef2:	40078793          	addi	a5,a5,1024 # 40012400 <_eusrstack+0x20011400>
     ef6:	02f51063          	bne	a0,a5,f16 <ADC_DeInit+0x28>
     efa:	9aeff2ef          	jal	t0,a8 <__riscv_save_0>
     efe:	4585                	li	a1,1
     f00:	20000513          	li	a0,512
     f04:	16d000ef          	jal	ra,1870 <RCC_PB2PeriphResetCmd>
     f08:	4581                	li	a1,0
     f0a:	20000513          	li	a0,512
     f0e:	163000ef          	jal	ra,1870 <RCC_PB2PeriphResetCmd>
     f12:	9a0ff06f          	j	b2 <__riscv_restore_0>
     f16:	8082                	ret

00000f18 <ADC_Init>:
     f18:	4158                	lw	a4,4(a0)
     f1a:	fff107b7          	lui	a5,0xfff10
     f1e:	eff78793          	addi	a5,a5,-257 # fff0feff <_eusrstack+0xdff0eeff>
     f22:	8f7d                	and	a4,a4,a5
     f24:	41dc                	lw	a5,4(a1)
     f26:	4194                	lw	a3,0(a1)
     f28:	07a2                	slli	a5,a5,0x8
     f2a:	8fd5                	or	a5,a5,a3
     f2c:	8fd9                	or	a5,a5,a4
     f2e:	c15c                	sw	a5,4(a0)
     f30:	4518                	lw	a4,8(a0)
     f32:	fff1f7b7          	lui	a5,0xfff1f
     f36:	7fd78793          	addi	a5,a5,2045 # fff1f7fd <_eusrstack+0xdff1e7fd>
     f3a:	45d4                	lw	a3,12(a1)
     f3c:	8f7d                	and	a4,a4,a5
     f3e:	499c                	lw	a5,16(a1)
     f40:	8fd5                	or	a5,a5,a3
     f42:	4594                	lw	a3,8(a1)
     f44:	0686                	slli	a3,a3,0x1
     f46:	8fd5                	or	a5,a5,a3
     f48:	8fd9                	or	a5,a5,a4
     f4a:	c51c                	sw	a5,8(a0)
     f4c:	5558                	lw	a4,44(a0)
     f4e:	ff1007b7          	lui	a5,0xff100
     f52:	17fd                	addi	a5,a5,-1 # ff0fffff <_eusrstack+0xdf0fefff>
     f54:	8f7d                	and	a4,a4,a5
     f56:	29dc                	lbu	a5,20(a1)
     f58:	17fd                	addi	a5,a5,-1
     f5a:	0ff7f793          	zext.b	a5,a5
     f5e:	07d2                	slli	a5,a5,0x14
     f60:	8fd9                	or	a5,a5,a4
     f62:	d55c                	sw	a5,44(a0)
     f64:	8082                	ret

00000f66 <ADC_Cmd>:
     f66:	451c                	lw	a5,8(a0)
     f68:	c589                	beqz	a1,f72 <ADC_Cmd+0xc>
     f6a:	0017e793          	ori	a5,a5,1
     f6e:	c51c                	sw	a5,8(a0)
     f70:	8082                	ret
     f72:	9bf9                	andi	a5,a5,-2
     f74:	bfed                	j	f6e <ADC_Cmd+0x8>

00000f76 <ADC_DMACmd>:
     f76:	451c                	lw	a5,8(a0)
     f78:	c589                	beqz	a1,f82 <ADC_DMACmd+0xc>
     f7a:	1007e793          	ori	a5,a5,256
     f7e:	c51c                	sw	a5,8(a0)
     f80:	8082                	ret
     f82:	eff7f793          	andi	a5,a5,-257
     f86:	bfe5                	j	f7e <ADC_DMACmd+0x8>

00000f88 <ADC_RegularChannelConfig>:
     f88:	470d                	li	a4,3
     f8a:	02e58733          	mul	a4,a1,a4
     f8e:	01052303          	lw	t1,16(a0)
     f92:	479d                	li	a5,7
     f94:	00e797b3          	sll	a5,a5,a4
     f98:	fff7c793          	not	a5,a5
     f9c:	0067f7b3          	and	a5,a5,t1
     fa0:	00e696b3          	sll	a3,a3,a4
     fa4:	8edd                	or	a3,a3,a5
     fa6:	c914                	sw	a3,16(a0)
     fa8:	4799                	li	a5,6
     faa:	02c7e263          	bltu	a5,a2,fce <ADC_RegularChannelConfig+0x46>
     fae:	4795                	li	a5,5
     fb0:	167d                	addi	a2,a2,-1
     fb2:	02f60633          	mul	a2,a2,a5
     fb6:	5958                	lw	a4,52(a0)
     fb8:	47fd                	li	a5,31
     fba:	00c797b3          	sll	a5,a5,a2
     fbe:	fff7c793          	not	a5,a5
     fc2:	8ff9                	and	a5,a5,a4
     fc4:	00c59633          	sll	a2,a1,a2
     fc8:	8e5d                	or	a2,a2,a5
     fca:	d950                	sw	a2,52(a0)
     fcc:	8082                	ret
     fce:	47b1                	li	a5,12
     fd0:	02c7e263          	bltu	a5,a2,ff4 <ADC_RegularChannelConfig+0x6c>
     fd4:	4795                	li	a5,5
     fd6:	1665                	addi	a2,a2,-7
     fd8:	02f60633          	mul	a2,a2,a5
     fdc:	5918                	lw	a4,48(a0)
     fde:	47fd                	li	a5,31
     fe0:	00c797b3          	sll	a5,a5,a2
     fe4:	fff7c793          	not	a5,a5
     fe8:	8ff9                	and	a5,a5,a4
     fea:	00c59633          	sll	a2,a1,a2
     fee:	8e5d                	or	a2,a2,a5
     ff0:	d910                	sw	a2,48(a0)
     ff2:	8082                	ret
     ff4:	4795                	li	a5,5
     ff6:	164d                	addi	a2,a2,-13
     ff8:	02f60633          	mul	a2,a2,a5
     ffc:	5558                	lw	a4,44(a0)
     ffe:	47fd                	li	a5,31
    1000:	00c797b3          	sll	a5,a5,a2
    1004:	fff7c793          	not	a5,a5
    1008:	8ff9                	and	a5,a5,a4
    100a:	00c595b3          	sll	a1,a1,a2
    100e:	8ddd                	or	a1,a1,a5
    1010:	d54c                	sw	a1,44(a0)
    1012:	8082                	ret

00001014 <ADC_ExternalTrigConvCmd>:
    1014:	451c                	lw	a5,8(a0)
    1016:	c591                	beqz	a1,1022 <ADC_ExternalTrigConvCmd+0xe>
    1018:	00100737          	lui	a4,0x100
    101c:	8fd9                	or	a5,a5,a4
    101e:	c51c                	sw	a5,8(a0)
    1020:	8082                	ret
    1022:	fff00737          	lui	a4,0xfff00
    1026:	177d                	addi	a4,a4,-1 # ffefffff <_eusrstack+0xdfefefff>
    1028:	8ff9                	and	a5,a5,a4
    102a:	bfd5                	j	101e <ADC_ExternalTrigConvCmd+0xa>

0000102c <ADC_BufferCmd>:
    102c:	415c                	lw	a5,4(a0)
    102e:	c591                	beqz	a1,103a <ADC_BufferCmd+0xe>
    1030:	04000737          	lui	a4,0x4000
    1034:	8fd9                	or	a5,a5,a4
    1036:	c15c                	sw	a5,4(a0)
    1038:	8082                	ret
    103a:	fc000737          	lui	a4,0xfc000
    103e:	177d                	addi	a4,a4,-1 # fbffffff <_eusrstack+0xdbffefff>
    1040:	8ff9                	and	a5,a5,a4
    1042:	bfd5                	j	1036 <ADC_BufferCmd+0xa>

00001044 <DMA_DeInit>:
    1044:	411c                	lw	a5,0(a0)
    1046:	6741                	lui	a4,0x10
    1048:	1779                	addi	a4,a4,-2 # fffe <_data_lma+0xce96>
    104a:	8ff9                	and	a5,a5,a4
    104c:	c11c                	sw	a5,0(a0)
    104e:	00052023          	sw	zero,0(a0)
    1052:	00052223          	sw	zero,4(a0)
    1056:	00052423          	sw	zero,8(a0)
    105a:	400207b7          	lui	a5,0x40020
    105e:	00052623          	sw	zero,12(a0)
    1062:	00878713          	addi	a4,a5,8 # 40020008 <_eusrstack+0x2001f008>
    1066:	00e51763          	bne	a0,a4,1074 <DMA_DeInit+0x30>
    106a:	43d8                	lw	a4,4(a5)
    106c:	00f76713          	ori	a4,a4,15
    1070:	c3d8                	sw	a4,4(a5)
    1072:	8082                	ret
    1074:	01c78713          	addi	a4,a5,28
    1078:	00e51663          	bne	a0,a4,1084 <DMA_DeInit+0x40>
    107c:	43d8                	lw	a4,4(a5)
    107e:	0f076713          	ori	a4,a4,240
    1082:	b7fd                	j	1070 <DMA_DeInit+0x2c>
    1084:	03078713          	addi	a4,a5,48
    1088:	00e51863          	bne	a0,a4,1098 <DMA_DeInit+0x54>
    108c:	43d8                	lw	a4,4(a5)
    108e:	6685                	lui	a3,0x1
    1090:	f0068693          	addi	a3,a3,-256 # f00 <ADC_DeInit+0x12>
    1094:	8f55                	or	a4,a4,a3
    1096:	bfe9                	j	1070 <DMA_DeInit+0x2c>
    1098:	04478713          	addi	a4,a5,68
    109c:	00e51563          	bne	a0,a4,10a6 <DMA_DeInit+0x62>
    10a0:	43d8                	lw	a4,4(a5)
    10a2:	66bd                	lui	a3,0xf
    10a4:	bfc5                	j	1094 <DMA_DeInit+0x50>
    10a6:	05878713          	addi	a4,a5,88
    10aa:	00e51663          	bne	a0,a4,10b6 <DMA_DeInit+0x72>
    10ae:	43d8                	lw	a4,4(a5)
    10b0:	000f06b7          	lui	a3,0xf0
    10b4:	b7c5                	j	1094 <DMA_DeInit+0x50>
    10b6:	06c78713          	addi	a4,a5,108
    10ba:	00e51663          	bne	a0,a4,10c6 <DMA_DeInit+0x82>
    10be:	43d8                	lw	a4,4(a5)
    10c0:	00f006b7          	lui	a3,0xf00
    10c4:	bfc1                	j	1094 <DMA_DeInit+0x50>
    10c6:	08078713          	addi	a4,a5,128
    10ca:	fae514e3          	bne	a0,a4,1072 <DMA_DeInit+0x2e>
    10ce:	43d8                	lw	a4,4(a5)
    10d0:	0f0006b7          	lui	a3,0xf000
    10d4:	b7c1                	j	1094 <DMA_DeInit+0x50>

000010d6 <DMA_Init>:
    10d6:	4118                	lw	a4,0(a0)
    10d8:	77e1                	lui	a5,0xffff8
    10da:	07bd                	addi	a5,a5,15 # ffff800f <_eusrstack+0xdfff700f>
    10dc:	5194                	lw	a3,32(a1)
    10de:	8f7d                	and	a4,a4,a5
    10e0:	459c                	lw	a5,8(a1)
    10e2:	8fd5                	or	a5,a5,a3
    10e4:	4994                	lw	a3,16(a1)
    10e6:	8fd5                	or	a5,a5,a3
    10e8:	49d4                	lw	a3,20(a1)
    10ea:	8fd5                	or	a5,a5,a3
    10ec:	4d94                	lw	a3,24(a1)
    10ee:	8fd5                	or	a5,a5,a3
    10f0:	4dd4                	lw	a3,28(a1)
    10f2:	8fd5                	or	a5,a5,a3
    10f4:	51d4                	lw	a3,36(a1)
    10f6:	8fd5                	or	a5,a5,a3
    10f8:	5594                	lw	a3,40(a1)
    10fa:	8fd5                	or	a5,a5,a3
    10fc:	8fd9                	or	a5,a5,a4
    10fe:	c11c                	sw	a5,0(a0)
    1100:	45dc                	lw	a5,12(a1)
    1102:	c15c                	sw	a5,4(a0)
    1104:	419c                	lw	a5,0(a1)
    1106:	c51c                	sw	a5,8(a0)
    1108:	41dc                	lw	a5,4(a1)
    110a:	c55c                	sw	a5,12(a0)
    110c:	8082                	ret

0000110e <DMA_Cmd>:
    110e:	411c                	lw	a5,0(a0)
    1110:	c589                	beqz	a1,111a <DMA_Cmd+0xc>
    1112:	0017e793          	ori	a5,a5,1
    1116:	c11c                	sw	a5,0(a0)
    1118:	8082                	ret
    111a:	6741                	lui	a4,0x10
    111c:	1779                	addi	a4,a4,-2 # fffe <_data_lma+0xce96>
    111e:	8ff9                	and	a5,a5,a4
    1120:	bfdd                	j	1116 <DMA_Cmd+0x8>

00001122 <DMA_ITConfig>:
    1122:	411c                	lw	a5,0(a0)
    1124:	c601                	beqz	a2,112c <DMA_ITConfig+0xa>
    1126:	8fcd                	or	a5,a5,a1
    1128:	c11c                	sw	a5,0(a0)
    112a:	8082                	ret
    112c:	fff5c593          	not	a1,a1
    1130:	8dfd                	and	a1,a1,a5
    1132:	c10c                	sw	a1,0(a0)
    1134:	8082                	ret

00001136 <DMA_GetFlagStatus>:
    1136:	400207b7          	lui	a5,0x40020
    113a:	439c                	lw	a5,0(a5)
    113c:	8d7d                	and	a0,a0,a5
    113e:	00a03533          	snez	a0,a0
    1142:	8082                	ret

00001144 <DMA_GetITStatus>:
    1144:	bfcd                	j	1136 <DMA_GetFlagStatus>

00001146 <DMA_ClearITPendingBit>:
    1146:	400207b7          	lui	a5,0x40020
    114a:	c3c8                	sw	a0,4(a5)
    114c:	8082                	ret

0000114e <GPIO_Init>:
    114e:	4594                	lw	a3,8(a1)
    1150:	0106f793          	andi	a5,a3,16
    1154:	00f6f313          	andi	t1,a3,15
    1158:	c781                	beqz	a5,1160 <GPIO_Init+0x12>
    115a:	41dc                	lw	a5,4(a1)
    115c:	00f36333          	or	t1,t1,a5
    1160:	0005d283          	lhu	t0,0(a1)
    1164:	0ff2f793          	zext.b	a5,t0
    1168:	cfa9                	beqz	a5,11c2 <GPIO_Init+0x74>
    116a:	410c                	lw	a1,0(a0)
    116c:	1161                	addi	sp,sp,-8
    116e:	c222                	sw	s0,4(sp)
    1170:	c026                	sw	s1,0(sp)
    1172:	4781                	li	a5,0
    1174:	02800393          	li	t2,40
    1178:	443d                	li	s0,15
    117a:	04800493          	li	s1,72
    117e:	4705                	li	a4,1
    1180:	00f71733          	sll	a4,a4,a5
    1184:	00e2f633          	and	a2,t0,a4
    1188:	02c71063          	bne	a4,a2,11a8 <GPIO_Init+0x5a>
    118c:	02769763          	bne	a3,t2,11ba <GPIO_Init+0x6c>
    1190:	c958                	sw	a4,20(a0)
    1192:	00279613          	slli	a2,a5,0x2
    1196:	00c41733          	sll	a4,s0,a2
    119a:	fff74713          	not	a4,a4
    119e:	8f6d                	and	a4,a4,a1
    11a0:	00c31633          	sll	a2,t1,a2
    11a4:	00e665b3          	or	a1,a2,a4
    11a8:	0785                	addi	a5,a5,1 # 40020001 <_eusrstack+0x2001f001>
    11aa:	4721                	li	a4,8
    11ac:	fce799e3          	bne	a5,a4,117e <GPIO_Init+0x30>
    11b0:	4412                	lw	s0,4(sp)
    11b2:	c10c                	sw	a1,0(a0)
    11b4:	4482                	lw	s1,0(sp)
    11b6:	0121                	addi	sp,sp,8
    11b8:	8082                	ret
    11ba:	fc969ce3          	bne	a3,s1,1192 <GPIO_Init+0x44>
    11be:	c918                	sw	a4,16(a0)
    11c0:	bfc9                	j	1192 <GPIO_Init+0x44>
    11c2:	8082                	ret

000011c4 <GPIO_PinRemapConfig>:
    11c4:	40010337          	lui	t1,0x40010
    11c8:	080007b7          	lui	a5,0x8000
    11cc:	00c32683          	lw	a3,12(t1) # 4001000c <_eusrstack+0x2000f00c>
    11d0:	01055613          	srli	a2,a0,0x10
    11d4:	01051713          	slli	a4,a0,0x10
    11d8:	8fe9                	and	a5,a5,a0
    11da:	8a3d                	andi	a2,a2,15
    11dc:	8341                	srli	a4,a4,0x10
    11de:	c7bd                	beqz	a5,124c <GPIO_PinRemapConfig+0x88>
    11e0:	003007b7          	lui	a5,0x300
    11e4:	00f572b3          	and	t0,a0,a5
    11e8:	02f29463          	bne	t0,a5,1210 <GPIO_PinRemapConfig+0x4c>
    11ec:	f9000637          	lui	a2,0xf9000
    11f0:	167d                	addi	a2,a2,-1 # f8ffffff <_eusrstack+0xd8ffefff>
    11f2:	00c6f7b3          	and	a5,a3,a2
    11f6:	00c32683          	lw	a3,12(t1)
    11fa:	8ef1                	and	a3,a3,a2
    11fc:	00d32623          	sw	a3,12(t1)
    1200:	c595                	beqz	a1,122c <GPIO_PinRemapConfig+0x68>
    1202:	8145                	srli	a0,a0,0x11
    1204:	07057513          	andi	a0,a0,112
    1208:	00a71733          	sll	a4,a4,a0
    120c:	8fd9                	or	a5,a5,a4
    120e:	a839                	j	122c <GPIO_PinRemapConfig+0x68>
    1210:	004007b7          	lui	a5,0x400
    1214:	8fe9                	and	a5,a5,a0
    1216:	cf99                	beqz	a5,1234 <GPIO_PinRemapConfig+0x70>
    1218:	479d                	li	a5,7
    121a:	00c797b3          	sll	a5,a5,a2
    121e:	fff7c793          	not	a5,a5
    1222:	8ff5                	and	a5,a5,a3
    1224:	c581                	beqz	a1,122c <GPIO_PinRemapConfig+0x68>
    1226:	00c71633          	sll	a2,a4,a2
    122a:	8fd1                	or	a5,a5,a2
    122c:	40010737          	lui	a4,0x40010
    1230:	c75c                	sw	a5,12(a4)
    1232:	8082                	ret
    1234:	002007b7          	lui	a5,0x200
    1238:	00f29363          	bne	t0,a5,123e <GPIO_PinRemapConfig+0x7a>
    123c:	0641                	addi	a2,a2,16
    123e:	479d                	li	a5,7
    1240:	00c797b3          	sll	a5,a5,a2
    1244:	fff7c793          	not	a5,a5
    1248:	8ff5                	and	a5,a5,a3
    124a:	bf5d                	j	1200 <GPIO_PinRemapConfig+0x3c>
    124c:	001007b7          	lui	a5,0x100
    1250:	8fe9                	and	a5,a5,a0
    1252:	c399                	beqz	a5,1258 <GPIO_PinRemapConfig+0x94>
    1254:	47bd                	li	a5,15
    1256:	b7ed                	j	1240 <GPIO_PinRemapConfig+0x7c>
    1258:	01155793          	srli	a5,a0,0x11
    125c:	0707f793          	andi	a5,a5,112
    1260:	00f717b3          	sll	a5,a4,a5
    1264:	b7c5                	j	1244 <GPIO_PinRemapConfig+0x80>

00001266 <GPIO_IPD_Unused>:
    1266:	e43fe2ef          	jal	t0,a8 <__riscv_save_0>
    126a:	1151                	addi	sp,sp,-12
    126c:	4585                	li	a1,1
    126e:	03c00513          	li	a0,60
    1272:	c002                	sw	zero,0(sp)
    1274:	c202                	sw	zero,4(sp)
    1276:	c402                	sw	zero,8(sp)
    1278:	2b75                	jal	1834 <RCC_PB2PeriphClockCmd>
    127a:	1ffff7b7          	lui	a5,0x1ffff
    127e:	7047a703          	lw	a4,1796(a5) # 1ffff704 <_data_lma+0x1fffc59c>
    1282:	005206b7          	lui	a3,0x520
    1286:	60068693          	addi	a3,a3,1536 # 520600 <_data_lma+0x51d498>
    128a:	f0f77793          	andi	a5,a4,-241
    128e:	0ad78663          	beq	a5,a3,133a <GPIO_IPD_Unused+0xd4>
    1292:	0cf6e263          	bltu	a3,a5,1356 <GPIO_IPD_Unused+0xf0>
    1296:	002406b7          	lui	a3,0x240
    129a:	60068693          	addi	a3,a3,1536 # 240600 <_data_lma+0x23d498>
    129e:	20d78263          	beq	a5,a3,14a2 <GPIO_IPD_Unused+0x23c>
    12a2:	04f6e063          	bltu	a3,a5,12e2 <GPIO_IPD_Unused+0x7c>
    12a6:	002206b7          	lui	a3,0x220
    12aa:	60068693          	addi	a3,a3,1536 # 220600 <_data_lma+0x21d498>
    12ae:	26d78663          	beq	a5,a3,151a <GPIO_IPD_Unused+0x2b4>
    12b2:	00f6ef63          	bltu	a3,a5,12d0 <GPIO_IPD_Unused+0x6a>
    12b6:	77c1                	lui	a5,0xffff0
    12b8:	f0f78793          	addi	a5,a5,-241 # fffeff0f <_eusrstack+0xdffeef0f>
    12bc:	8ff9                	and	a5,a5,a4
    12be:	00200737          	lui	a4,0x200
    12c2:	60070713          	addi	a4,a4,1536 # 200600 <_data_lma+0x1fd498>
    12c6:	00e79b63          	bne	a5,a4,12dc <GPIO_IPD_Unused+0x76>
    12ca:	0f900793          	li	a5,249
    12ce:	a835                	j	130a <GPIO_IPD_Unused+0xa4>
    12d0:	00230737          	lui	a4,0x230
    12d4:	60070713          	addi	a4,a4,1536 # 230600 <_data_lma+0x22d498>
    12d8:	20e78963          	beq	a5,a4,14ea <GPIO_IPD_Unused+0x284>
    12dc:	0131                	addi	sp,sp,12
    12de:	dd5fe06f          	j	b2 <__riscv_restore_0>
    12e2:	005006b7          	lui	a3,0x500
    12e6:	60068693          	addi	a3,a3,1536 # 500600 <_data_lma+0x4fd498>
    12ea:	1ad78563          	beq	a5,a3,1494 <GPIO_IPD_Unused+0x22e>
    12ee:	04f6e063          	bltu	a3,a5,132e <GPIO_IPD_Unused+0xc8>
    12f2:	77c1                	lui	a5,0xffff0
    12f4:	f0f78793          	addi	a5,a5,-241 # fffeff0f <_eusrstack+0xdffeef0f>
    12f8:	8f7d                	and	a4,a4,a5
    12fa:	004007b7          	lui	a5,0x400
    12fe:	60078793          	addi	a5,a5,1536 # 400600 <_data_lma+0x3fd498>
    1302:	fce79de3          	bne	a5,a4,12dc <GPIO_IPD_Unused+0x76>
    1306:	0e900793          	li	a5,233
    130a:	40011437          	lui	s0,0x40011
    130e:	807c                	sh	a5,0(sp)
    1310:	858a                	mv	a1,sp
    1312:	02800793          	li	a5,40
    1316:	80040513          	addi	a0,s0,-2048 # 40010800 <_eusrstack+0x2000f800>
    131a:	c43e                	sw	a5,8(sp)
    131c:	3d0d                	jal	114e <GPIO_Init>
    131e:	07f00793          	li	a5,127
    1322:	807c                	sh	a5,0(sp)
    1324:	858a                	mv	a1,sp
    1326:	c0040513          	addi	a0,s0,-1024
    132a:	3515                	jal	114e <GPIO_Init>
    132c:	bf45                	j	12dc <GPIO_IPD_Unused+0x76>
    132e:	00510737          	lui	a4,0x510
    1332:	60070713          	addi	a4,a4,1536 # 510600 <_data_lma+0x50d498>
    1336:	fae793e3          	bne	a5,a4,12dc <GPIO_IPD_Unused+0x76>
    133a:	06900793          	li	a5,105
    133e:	40011437          	lui	s0,0x40011
    1342:	807c                	sh	a5,0(sp)
    1344:	858a                	mv	a1,sp
    1346:	02800793          	li	a5,40
    134a:	80040513          	addi	a0,s0,-2048 # 40010800 <_eusrstack+0x2000f800>
    134e:	c43e                	sw	a5,8(sp)
    1350:	3bfd                	jal	114e <GPIO_Init>
    1352:	47ad                	li	a5,11
    1354:	b7f9                	j	1322 <GPIO_IPD_Unused+0xbc>
    1356:	00640737          	lui	a4,0x640
    135a:	60070713          	addi	a4,a4,1536 # 640600 <_data_lma+0x63d498>
    135e:	f6e786e3          	beq	a5,a4,12ca <GPIO_IPD_Unused+0x64>
    1362:	06f76163          	bltu	a4,a5,13c4 <GPIO_IPD_Unused+0x15e>
    1366:	00620737          	lui	a4,0x620
    136a:	60070713          	addi	a4,a4,1536 # 620600 <_data_lma+0x61d498>
    136e:	f8e78ce3          	beq	a5,a4,1306 <GPIO_IPD_Unused+0xa0>
    1372:	04f76463          	bltu	a4,a5,13ba <GPIO_IPD_Unused+0x154>
    1376:	00530737          	lui	a4,0x530
    137a:	60070713          	addi	a4,a4,1536 # 530600 <_data_lma+0x52d498>
    137e:	0ce78d63          	beq	a5,a4,1458 <GPIO_IPD_Unused+0x1f2>
    1382:	00610737          	lui	a4,0x610
    1386:	60070713          	addi	a4,a4,1536 # 610600 <_data_lma+0x60d498>
    138a:	f4e799e3          	bne	a5,a4,12dc <GPIO_IPD_Unused+0x76>
    138e:	08000793          	li	a5,128
    1392:	40011437          	lui	s0,0x40011
    1396:	807c                	sh	a5,0(sp)
    1398:	858a                	mv	a1,sp
    139a:	02800793          	li	a5,40
    139e:	80040513          	addi	a0,s0,-2048 # 40010800 <_eusrstack+0x2000f800>
    13a2:	c43e                	sw	a5,8(sp)
    13a4:	336d                	jal	114e <GPIO_Init>
    13a6:	07400793          	li	a5,116
    13aa:	858a                	mv	a1,sp
    13ac:	c0040513          	addi	a0,s0,-1024
    13b0:	807c                	sh	a5,0(sp)
    13b2:	3b71                	jal	114e <GPIO_Init>
    13b4:	0c800793          	li	a5,200
    13b8:	a0ad                	j	1422 <GPIO_IPD_Unused+0x1bc>
    13ba:	00630737          	lui	a4,0x630
    13be:	60070713          	addi	a4,a4,1536 # 630600 <_data_lma+0x62d498>
    13c2:	b781                	j	1302 <GPIO_IPD_Unused+0x9c>
    13c4:	00731737          	lui	a4,0x731
    13c8:	80070713          	addi	a4,a4,-2048 # 730800 <_data_lma+0x72d698>
    13cc:	02e78663          	beq	a5,a4,13f8 <GPIO_IPD_Unused+0x192>
    13d0:	00f76b63          	bltu	a4,a5,13e6 <GPIO_IPD_Unused+0x180>
    13d4:	00701737          	lui	a4,0x701
    13d8:	80070713          	addi	a4,a4,-2048 # 700800 <_data_lma+0x6fd698>
    13dc:	04e78863          	beq	a5,a4,142c <GPIO_IPD_Unused+0x1c6>
    13e0:	00710737          	lui	a4,0x710
    13e4:	b74d                	j	1386 <GPIO_IPD_Unused+0x120>
    13e6:	00741737          	lui	a4,0x741
    13ea:	80070713          	addi	a4,a4,-2048 # 740800 <_data_lma+0x73d698>
    13ee:	eee797e3          	bne	a5,a4,12dc <GPIO_IPD_Unused+0x76>
    13f2:	0c000793          	li	a5,192
    13f6:	bf71                	j	1392 <GPIO_IPD_Unused+0x12c>
    13f8:	0c000793          	li	a5,192
    13fc:	40011437          	lui	s0,0x40011
    1400:	807c                	sh	a5,0(sp)
    1402:	858a                	mv	a1,sp
    1404:	02800793          	li	a5,40
    1408:	80040513          	addi	a0,s0,-2048 # 40010800 <_eusrstack+0x2000f800>
    140c:	c43e                	sw	a5,8(sp)
    140e:	3381                	jal	114e <GPIO_Init>
    1410:	07400793          	li	a5,116
    1414:	858a                	mv	a1,sp
    1416:	c0040513          	addi	a0,s0,-1024
    141a:	807c                	sh	a5,0(sp)
    141c:	3b0d                	jal	114e <GPIO_Init>
    141e:	0c900793          	li	a5,201
    1422:	807c                	sh	a5,0(sp)
    1424:	858a                	mv	a1,sp
    1426:	40011537          	lui	a0,0x40011
    142a:	b701                	j	132a <GPIO_IPD_Unused+0xc4>
    142c:	0c000793          	li	a5,192
    1430:	40011437          	lui	s0,0x40011
    1434:	807c                	sh	a5,0(sp)
    1436:	858a                	mv	a1,sp
    1438:	02800793          	li	a5,40
    143c:	80040513          	addi	a0,s0,-2048 # 40010800 <_eusrstack+0x2000f800>
    1440:	c43e                	sw	a5,8(sp)
    1442:	3331                	jal	114e <GPIO_Init>
    1444:	07400793          	li	a5,116
    1448:	858a                	mv	a1,sp
    144a:	c0040513          	addi	a0,s0,-1024
    144e:	807c                	sh	a5,0(sp)
    1450:	39fd                	jal	114e <GPIO_Init>
    1452:	0cb00793          	li	a5,203
    1456:	b7f1                	j	1422 <GPIO_IPD_Unused+0x1bc>
    1458:	06900793          	li	a5,105
    145c:	40011437          	lui	s0,0x40011
    1460:	807c                	sh	a5,0(sp)
    1462:	858a                	mv	a1,sp
    1464:	02800793          	li	a5,40
    1468:	80040513          	addi	a0,s0,-2048 # 40010800 <_eusrstack+0x2000f800>
    146c:	c43e                	sw	a5,8(sp)
    146e:	31c5                	jal	114e <GPIO_Init>
    1470:	47ad                	li	a5,11
    1472:	858a                	mv	a1,sp
    1474:	c0040513          	addi	a0,s0,-1024
    1478:	807c                	sh	a5,0(sp)
    147a:	cd5ff0ef          	jal	ra,114e <GPIO_Init>
    147e:	02c00793          	li	a5,44
    1482:	858a                	mv	a1,sp
    1484:	40011537          	lui	a0,0x40011
    1488:	807c                	sh	a5,0(sp)
    148a:	cc5ff0ef          	jal	ra,114e <GPIO_Init>
    148e:	06c00793          	li	a5,108
    1492:	a0b9                	j	14e0 <GPIO_IPD_Unused+0x27a>
    1494:	0c800793          	li	a5,200
    1498:	807c                	sh	a5,0(sp)
    149a:	02800793          	li	a5,40
    149e:	c43e                	sw	a5,8(sp)
    14a0:	b751                	j	1424 <GPIO_IPD_Unused+0x1be>
    14a2:	0f900793          	li	a5,249
    14a6:	40011437          	lui	s0,0x40011
    14aa:	807c                	sh	a5,0(sp)
    14ac:	858a                	mv	a1,sp
    14ae:	02800793          	li	a5,40
    14b2:	80040513          	addi	a0,s0,-2048 # 40010800 <_eusrstack+0x2000f800>
    14b6:	c43e                	sw	a5,8(sp)
    14b8:	c97ff0ef          	jal	ra,114e <GPIO_Init>
    14bc:	07f00793          	li	a5,127
    14c0:	858a                	mv	a1,sp
    14c2:	c0040513          	addi	a0,s0,-1024
    14c6:	807c                	sh	a5,0(sp)
    14c8:	c87ff0ef          	jal	ra,114e <GPIO_Init>
    14cc:	0e900793          	li	a5,233
    14d0:	858a                	mv	a1,sp
    14d2:	40011537          	lui	a0,0x40011
    14d6:	807c                	sh	a5,0(sp)
    14d8:	c77ff0ef          	jal	ra,114e <GPIO_Init>
    14dc:	08d00793          	li	a5,141
    14e0:	807c                	sh	a5,0(sp)
    14e2:	858a                	mv	a1,sp
    14e4:	40040513          	addi	a0,s0,1024
    14e8:	b589                	j	132a <GPIO_IPD_Unused+0xc4>
    14ea:	0f900793          	li	a5,249
    14ee:	40011437          	lui	s0,0x40011
    14f2:	807c                	sh	a5,0(sp)
    14f4:	858a                	mv	a1,sp
    14f6:	02800793          	li	a5,40
    14fa:	80040513          	addi	a0,s0,-2048 # 40010800 <_eusrstack+0x2000f800>
    14fe:	c43e                	sw	a5,8(sp)
    1500:	c4fff0ef          	jal	ra,114e <GPIO_Init>
    1504:	07f00793          	li	a5,127
    1508:	858a                	mv	a1,sp
    150a:	c0040513          	addi	a0,s0,-1024
    150e:	807c                	sh	a5,0(sp)
    1510:	c3fff0ef          	jal	ra,114e <GPIO_Init>
    1514:	02600793          	li	a5,38
    1518:	b7ad                	j	1482 <GPIO_IPD_Unused+0x21c>
    151a:	0f900793          	li	a5,249
    151e:	40011437          	lui	s0,0x40011
    1522:	807c                	sh	a5,0(sp)
    1524:	858a                	mv	a1,sp
    1526:	02800793          	li	a5,40
    152a:	80040513          	addi	a0,s0,-2048 # 40010800 <_eusrstack+0x2000f800>
    152e:	c43e                	sw	a5,8(sp)
    1530:	c1fff0ef          	jal	ra,114e <GPIO_Init>
    1534:	07f00793          	li	a5,127
    1538:	858a                	mv	a1,sp
    153a:	c0040513          	addi	a0,s0,-1024
    153e:	807c                	sh	a5,0(sp)
    1540:	c0fff0ef          	jal	ra,114e <GPIO_Init>
    1544:	02000793          	li	a5,32
    1548:	858a                	mv	a1,sp
    154a:	40011537          	lui	a0,0x40011
    154e:	807c                	sh	a5,0(sp)
    1550:	bffff0ef          	jal	ra,114e <GPIO_Init>
    1554:	47b5                	li	a5,13
    1556:	b769                	j	14e0 <GPIO_IPD_Unused+0x27a>

00001558 <I2C_Init>:
    1558:	b51fe2ef          	jal	t0,a8 <__riscv_save_0>
    155c:	215e                	lhu	a5,4(a0)
    155e:	1111                	addi	sp,sp,-28
    1560:	84aa                	mv	s1,a0
    1562:	07c2                	slli	a5,a5,0x10
    1564:	83c1                	srli	a5,a5,0x10
    1566:	fc07f793          	andi	a5,a5,-64
    156a:	07c2                	slli	a5,a5,0x10
    156c:	83c1                	srli	a5,a5,0x10
    156e:	0028                	addi	a0,sp,8
    1570:	842e                	mv	s0,a1
    1572:	c23e                	sw	a5,4(sp)
    1574:	2401                	jal	1774 <RCC_GetClocksFreq>
    1576:	47c2                	lw	a5,16(sp)
    1578:	000f45b7          	lui	a1,0xf4
    157c:	24058593          	addi	a1,a1,576 # f4240 <_data_lma+0xf10d8>
    1580:	853e                	mv	a0,a5
    1582:	c03e                	sw	a5,0(sp)
    1584:	b41fe0ef          	jal	ra,c4 <__hidden___udivsi3>
    1588:	4792                	lw	a5,4(sp)
    158a:	400c                	lw	a1,0(s0)
    158c:	8fc9                	or	a5,a5,a0
    158e:	07c2                	slli	a5,a5,0x10
    1590:	83c1                	srli	a5,a5,0x10
    1592:	a0de                	sh	a5,4(s1)
    1594:	209e                	lhu	a5,0(s1)
    1596:	07c2                	slli	a5,a5,0x10
    1598:	83c1                	srli	a5,a5,0x10
    159a:	9bf9                	andi	a5,a5,-2
    159c:	07c2                	slli	a5,a5,0x10
    159e:	83c1                	srli	a5,a5,0x10
    15a0:	a09e                	sh	a5,0(s1)
    15a2:	67e1                	lui	a5,0x18
    15a4:	6a078793          	addi	a5,a5,1696 # 186a0 <_data_lma+0x15538>
    15a8:	04b7e563          	bltu	a5,a1,15f2 <I2C_Init+0x9a>
    15ac:	4502                	lw	a0,0(sp)
    15ae:	0586                	slli	a1,a1,0x1
    15b0:	b15fe0ef          	jal	ra,c4 <__hidden___udivsi3>
    15b4:	87aa                	mv	a5,a0
    15b6:	0542                	slli	a0,a0,0x10
    15b8:	8141                	srli	a0,a0,0x10
    15ba:	4691                	li	a3,4
    15bc:	00d57363          	bgeu	a0,a3,15c2 <I2C_Init+0x6a>
    15c0:	4791                	li	a5,4
    15c2:	07c2                	slli	a5,a5,0x10
    15c4:	83c1                	srli	a5,a5,0x10
    15c6:	acde                	sh	a5,28(s1)
    15c8:	209e                	lhu	a5,0(s1)
    15ca:	2056                	lhu	a3,4(s0)
    15cc:	2432                	lhu	a2,10(s0)
    15ce:	0017e793          	ori	a5,a5,1
    15d2:	a09e                	sh	a5,0(s1)
    15d4:	209e                	lhu	a5,0(s1)
    15d6:	8ed1                	or	a3,a3,a2
    15d8:	07c2                	slli	a5,a5,0x10
    15da:	83c1                	srli	a5,a5,0x10
    15dc:	bf57f793          	andi	a5,a5,-1035
    15e0:	8fd5                	or	a5,a5,a3
    15e2:	a09e                	sh	a5,0(s1)
    15e4:	2416                	lhu	a3,8(s0)
    15e6:	245e                	lhu	a5,12(s0)
    15e8:	8fd5                	or	a5,a5,a3
    15ea:	a49e                	sh	a5,8(s1)
    15ec:	0171                	addi	sp,sp,28
    15ee:	ac5fe06f          	j	b2 <__riscv_restore_0>
    15f2:	2076                	lhu	a3,6(s0)
    15f4:	67b1                	lui	a5,0xc
    15f6:	17fd                	addi	a5,a5,-1 # bfff <_data_lma+0x8e97>
    15f8:	02f69363          	bne	a3,a5,161e <I2C_Init+0xc6>
    15fc:	478d                	li	a5,3
    15fe:	02f585b3          	mul	a1,a1,a5
    1602:	4502                	lw	a0,0(sp)
    1604:	ac1fe0ef          	jal	ra,c4 <__hidden___udivsi3>
    1608:	01051793          	slli	a5,a0,0x10
    160c:	83c1                	srli	a5,a5,0x10
    160e:	01479693          	slli	a3,a5,0x14
    1612:	e299                	bnez	a3,1618 <I2C_Init+0xc0>
    1614:	0017e793          	ori	a5,a5,1
    1618:	66a1                	lui	a3,0x8
    161a:	8fd5                	or	a5,a5,a3
    161c:	b76d                	j	15c6 <I2C_Init+0x6e>
    161e:	47e5                	li	a5,25
    1620:	02f585b3          	mul	a1,a1,a5
    1624:	4502                	lw	a0,0(sp)
    1626:	a9ffe0ef          	jal	ra,c4 <__hidden___udivsi3>
    162a:	01051793          	slli	a5,a0,0x10
    162e:	83c1                	srli	a5,a5,0x10
    1630:	6691                	lui	a3,0x4
    1632:	8fd5                	or	a5,a5,a3
    1634:	bfe9                	j	160e <I2C_Init+0xb6>

00001636 <I2C_Cmd>:
    1636:	211e                	lhu	a5,0(a0)
    1638:	c589                	beqz	a1,1642 <I2C_Cmd+0xc>
    163a:	0017e793          	ori	a5,a5,1
    163e:	a11e                	sh	a5,0(a0)
    1640:	8082                	ret
    1642:	07c2                	slli	a5,a5,0x10
    1644:	83c1                	srli	a5,a5,0x10
    1646:	9bf9                	andi	a5,a5,-2
    1648:	07c2                	slli	a5,a5,0x10
    164a:	83c1                	srli	a5,a5,0x10
    164c:	bfcd                	j	163e <I2C_Cmd+0x8>

0000164e <I2C_GenerateSTART>:
    164e:	211e                	lhu	a5,0(a0)
    1650:	c589                	beqz	a1,165a <I2C_GenerateSTART+0xc>
    1652:	1007e793          	ori	a5,a5,256
    1656:	a11e                	sh	a5,0(a0)
    1658:	8082                	ret
    165a:	07c2                	slli	a5,a5,0x10
    165c:	83c1                	srli	a5,a5,0x10
    165e:	eff7f793          	andi	a5,a5,-257
    1662:	07c2                	slli	a5,a5,0x10
    1664:	83c1                	srli	a5,a5,0x10
    1666:	bfc5                	j	1656 <I2C_GenerateSTART+0x8>

00001668 <I2C_GenerateSTOP>:
    1668:	211e                	lhu	a5,0(a0)
    166a:	c589                	beqz	a1,1674 <I2C_GenerateSTOP+0xc>
    166c:	2007e793          	ori	a5,a5,512
    1670:	a11e                	sh	a5,0(a0)
    1672:	8082                	ret
    1674:	07c2                	slli	a5,a5,0x10
    1676:	83c1                	srli	a5,a5,0x10
    1678:	dff7f793          	andi	a5,a5,-513
    167c:	07c2                	slli	a5,a5,0x10
    167e:	83c1                	srli	a5,a5,0x10
    1680:	bfc5                	j	1670 <I2C_GenerateSTOP+0x8>

00001682 <I2C_AcknowledgeConfig>:
    1682:	211e                	lhu	a5,0(a0)
    1684:	c589                	beqz	a1,168e <I2C_AcknowledgeConfig+0xc>
    1686:	4007e793          	ori	a5,a5,1024
    168a:	a11e                	sh	a5,0(a0)
    168c:	8082                	ret
    168e:	07c2                	slli	a5,a5,0x10
    1690:	83c1                	srli	a5,a5,0x10
    1692:	bff7f793          	andi	a5,a5,-1025
    1696:	07c2                	slli	a5,a5,0x10
    1698:	83c1                	srli	a5,a5,0x10
    169a:	bfc5                	j	168a <I2C_AcknowledgeConfig+0x8>

0000169c <I2C_SendData>:
    169c:	a90e                	sh	a1,16(a0)
    169e:	8082                	ret

000016a0 <I2C_Send7bitAddress>:
    16a0:	0fe5f793          	andi	a5,a1,254
    16a4:	c219                	beqz	a2,16aa <I2C_Send7bitAddress+0xa>
    16a6:	0015e793          	ori	a5,a1,1
    16aa:	a91e                	sh	a5,16(a0)
    16ac:	8082                	ret

000016ae <I2C_CheckEvent>:
    16ae:	295e                	lhu	a5,20(a0)
    16b0:	2d0a                	lhu	a0,24(a0)
    16b2:	0542                	slli	a0,a0,0x10
    16b4:	8d5d                	or	a0,a0,a5
    16b6:	8d6d                	and	a0,a0,a1
    16b8:	0522                	slli	a0,a0,0x8
    16ba:	8121                	srli	a0,a0,0x8
    16bc:	8d0d                	sub	a0,a0,a1
    16be:	00153513          	seqz	a0,a0
    16c2:	8082                	ret

000016c4 <I2C_GetFlagStatus>:
    16c4:	1161                	addi	sp,sp,-8
    16c6:	c002                	sw	zero,0(sp)
    16c8:	c202                	sw	zero,4(sp)
    16ca:	01c5d793          	srli	a5,a1,0x1c
    16ce:	c22a                	sw	a0,4(sp)
    16d0:	c03e                	sw	a5,0(sp)
    16d2:	4782                	lw	a5,0(sp)
    16d4:	05a2                	slli	a1,a1,0x8
    16d6:	81a1                	srli	a1,a1,0x8
    16d8:	cb99                	beqz	a5,16ee <I2C_GetFlagStatus+0x2a>
    16da:	4792                	lw	a5,4(sp)
    16dc:	07d1                	addi	a5,a5,20
    16de:	c23e                	sw	a5,4(sp)
    16e0:	4792                	lw	a5,4(sp)
    16e2:	4388                	lw	a0,0(a5)
    16e4:	0121                	addi	sp,sp,8
    16e6:	8d6d                	and	a0,a0,a1
    16e8:	00a03533          	snez	a0,a0
    16ec:	8082                	ret
    16ee:	4792                	lw	a5,4(sp)
    16f0:	81c1                	srli	a1,a1,0x10
    16f2:	07e1                	addi	a5,a5,24
    16f4:	b7ed                	j	16de <I2C_GetFlagStatus+0x1a>

000016f6 <NVIC_PriorityGroupConfig>:
    16f6:	aca1a423          	sw	a0,-1336(gp) # 20000388 <NVIC_Priority_Group>
    16fa:	8082                	ret

000016fc <NVIC_Init>:
    16fc:	ac81a703          	lw	a4,-1336(gp) # 20000388 <NVIC_Priority_Group>
    1700:	4785                	li	a5,1
    1702:	2114                	lbu	a3,0(a0)
    1704:	02f71063          	bne	a4,a5,1724 <NVIC_Init+0x28>
    1708:	311c                	lbu	a5,1(a0)
    170a:	02e79c63          	bne	a5,a4,1742 <NVIC_Init+0x46>
    170e:	213c                	lbu	a5,2(a0)
    1710:	079a                	slli	a5,a5,0x6
    1712:	f807e793          	ori	a5,a5,-128
    1716:	e000e737          	lui	a4,0xe000e
    171a:	0ff7f793          	zext.b	a5,a5
    171e:	9736                	add	a4,a4,a3
    1720:	40f70023          	sb	a5,1024(a4) # e000e400 <_eusrstack+0xc000d400>
    1724:	4705                	li	a4,1
    1726:	0056d793          	srli	a5,a3,0x5
    172a:	00d71733          	sll	a4,a4,a3
    172e:	4154                	lw	a3,4(a0)
    1730:	ce89                	beqz	a3,174a <NVIC_Init+0x4e>
    1732:	04078793          	addi	a5,a5,64
    1736:	078a                	slli	a5,a5,0x2
    1738:	e000e6b7          	lui	a3,0xe000e
    173c:	97b6                	add	a5,a5,a3
    173e:	c398                	sw	a4,0(a5)
    1740:	8082                	ret
    1742:	f3ed                	bnez	a5,1724 <NVIC_Init+0x28>
    1744:	213c                	lbu	a5,2(a0)
    1746:	079a                	slli	a5,a5,0x6
    1748:	b7f9                	j	1716 <NVIC_Init+0x1a>
    174a:	06078793          	addi	a5,a5,96
    174e:	e000e6b7          	lui	a3,0xe000e
    1752:	078a                	slli	a5,a5,0x2
    1754:	97b6                	add	a5,a5,a3
    1756:	c398                	sw	a4,0(a5)
    1758:	0000100f          	.4byte	0x100f
    175c:	8082                	ret

0000175e <RCC_ADCCLKConfig>:
    175e:	400216b7          	lui	a3,0x40021
    1762:	42dc                	lw	a5,4(a3)
    1764:	7fff0737          	lui	a4,0x7fff0
    1768:	7ff70713          	addi	a4,a4,2047 # 7fff07ff <_eusrstack+0x5ffef7ff>
    176c:	8ff9                	and	a5,a5,a4
    176e:	8fc9                	or	a5,a5,a0
    1770:	c2dc                	sw	a5,4(a3)
    1772:	8082                	ret

00001774 <RCC_GetClocksFreq>:
    1774:	935fe2ef          	jal	t0,a8 <__riscv_save_0>
    1778:	40021737          	lui	a4,0x40021
    177c:	435c                	lw	a5,4(a4)
    177e:	46a1                	li	a3,8
    1780:	842a                	mv	s0,a0
    1782:	8bb1                	andi	a5,a5,12
    1784:	08d79463          	bne	a5,a3,180c <RCC_GetClocksFreq+0x98>
    1788:	435c                	lw	a5,4(a4)
    178a:	02dc77b7          	lui	a5,0x2dc7
    178e:	c0078793          	addi	a5,a5,-1024 # 2dc6c00 <_data_lma+0x2dc3a98>
    1792:	c01c                	sw	a5,0(s0)
    1794:	40021637          	lui	a2,0x40021
    1798:	4254                	lw	a3,4(a2)
    179a:	20000737          	lui	a4,0x20000
    179e:	04c70713          	addi	a4,a4,76 # 2000004c <PBHBPrescTable>
    17a2:	8291                	srli	a3,a3,0x4
    17a4:	8abd                	andi	a3,a3,15
    17a6:	9736                	add	a4,a4,a3
    17a8:	2308                	lbu	a0,0(a4)
    17aa:	4258                	lw	a4,4(a2)
    17ac:	0ff57593          	zext.b	a1,a0
    17b0:	08077713          	andi	a4,a4,128
    17b4:	00a7d533          	srl	a0,a5,a0
    17b8:	e701                	bnez	a4,17c0 <RCC_GetClocksFreq+0x4c>
    17ba:	853e                	mv	a0,a5
    17bc:	909fe0ef          	jal	ra,c4 <__hidden___udivsi3>
    17c0:	c048                	sw	a0,4(s0)
    17c2:	c408                	sw	a0,8(s0)
    17c4:	c448                	sw	a0,12(s0)
    17c6:	400217b7          	lui	a5,0x40021
    17ca:	43dc                	lw	a5,4(a5)
    17cc:	468d                	li	a3,3
    17ce:	83ad                	srli	a5,a5,0xb
    17d0:	8bfd                	andi	a5,a5,31
    17d2:	0037d713          	srli	a4,a5,0x3
    17d6:	078a                	slli	a5,a5,0x2
    17d8:	8bf1                	andi	a5,a5,28
    17da:	8fd9                	or	a5,a5,a4
    17dc:	0137f613          	andi	a2,a5,19
    17e0:	0037f713          	andi	a4,a5,3
    17e4:	00c6f463          	bgeu	a3,a2,17ec <RCC_GetClocksFreq+0x78>
    17e8:	ff478713          	addi	a4,a5,-12 # 40020ff4 <_eusrstack+0x2001fff4>
    17ec:	400217b7          	lui	a5,0x40021
    17f0:	43dc                	lw	a5,4(a5)
    17f2:	0007ca63          	bltz	a5,1806 <RCC_GetClocksFreq+0x92>
    17f6:	200007b7          	lui	a5,0x20000
    17fa:	03878793          	addi	a5,a5,56 # 20000038 <ADCPrescTable>
    17fe:	97ba                	add	a5,a5,a4
    1800:	238c                	lbu	a1,0(a5)
    1802:	8c3fe0ef          	jal	ra,c4 <__hidden___udivsi3>
    1806:	c808                	sw	a0,16(s0)
    1808:	8abfe06f          	j	b2 <__riscv_restore_0>
    180c:	016e37b7          	lui	a5,0x16e3
    1810:	60078793          	addi	a5,a5,1536 # 16e3600 <_data_lma+0x16e0498>
    1814:	bfbd                	j	1792 <RCC_GetClocksFreq+0x1e>

00001816 <RCC_HBPeriphClockCmd>:
    1816:	c599                	beqz	a1,1824 <RCC_HBPeriphClockCmd+0xe>
    1818:	40021737          	lui	a4,0x40021
    181c:	4b5c                	lw	a5,20(a4)
    181e:	8fc9                	or	a5,a5,a0
    1820:	cb5c                	sw	a5,20(a4)
    1822:	8082                	ret
    1824:	400217b7          	lui	a5,0x40021
    1828:	4bd8                	lw	a4,20(a5)
    182a:	fff54513          	not	a0,a0
    182e:	8d79                	and	a0,a0,a4
    1830:	cbc8                	sw	a0,20(a5)
    1832:	8082                	ret

00001834 <RCC_PB2PeriphClockCmd>:
    1834:	c599                	beqz	a1,1842 <RCC_PB2PeriphClockCmd+0xe>
    1836:	40021737          	lui	a4,0x40021
    183a:	4f1c                	lw	a5,24(a4)
    183c:	8fc9                	or	a5,a5,a0
    183e:	cf1c                	sw	a5,24(a4)
    1840:	8082                	ret
    1842:	400217b7          	lui	a5,0x40021
    1846:	4f98                	lw	a4,24(a5)
    1848:	fff54513          	not	a0,a0
    184c:	8d79                	and	a0,a0,a4
    184e:	cf88                	sw	a0,24(a5)
    1850:	8082                	ret

00001852 <RCC_PB1PeriphClockCmd>:
    1852:	c599                	beqz	a1,1860 <RCC_PB1PeriphClockCmd+0xe>
    1854:	40021737          	lui	a4,0x40021
    1858:	4f5c                	lw	a5,28(a4)
    185a:	8fc9                	or	a5,a5,a0
    185c:	cf5c                	sw	a5,28(a4)
    185e:	8082                	ret
    1860:	400217b7          	lui	a5,0x40021
    1864:	4fd8                	lw	a4,28(a5)
    1866:	fff54513          	not	a0,a0
    186a:	8d79                	and	a0,a0,a4
    186c:	cfc8                	sw	a0,28(a5)
    186e:	8082                	ret

00001870 <RCC_PB2PeriphResetCmd>:
    1870:	c599                	beqz	a1,187e <RCC_PB2PeriphResetCmd+0xe>
    1872:	40021737          	lui	a4,0x40021
    1876:	475c                	lw	a5,12(a4)
    1878:	8fc9                	or	a5,a5,a0
    187a:	c75c                	sw	a5,12(a4)
    187c:	8082                	ret
    187e:	400217b7          	lui	a5,0x40021
    1882:	47d8                	lw	a4,12(a5)
    1884:	fff54513          	not	a0,a0
    1888:	8d79                	and	a0,a0,a4
    188a:	c7c8                	sw	a0,12(a5)
    188c:	8082                	ret

0000188e <TIM_TimeBaseInit>:
    188e:	400137b7          	lui	a5,0x40013
    1892:	c0078793          	addi	a5,a5,-1024 # 40012c00 <_eusrstack+0x20011c00>
    1896:	00f50663          	beq	a0,a5,18a2 <TIM_TimeBaseInit+0x14>
    189a:	400007b7          	lui	a5,0x40000
    189e:	02f51d63          	bne	a0,a5,18d8 <TIM_TimeBaseInit+0x4a>
    18a2:	211e                	lhu	a5,0(a0)
    18a4:	21ba                	lhu	a4,2(a1)
    18a6:	07c2                	slli	a5,a5,0x10
    18a8:	83c1                	srli	a5,a5,0x10
    18aa:	f8f7f793          	andi	a5,a5,-113
    18ae:	8fd9                	or	a5,a5,a4
    18b0:	21fa                	lhu	a4,6(a1)
    18b2:	cff7f793          	andi	a5,a5,-769
    18b6:	8fd9                	or	a5,a5,a4
    18b8:	a11e                	sh	a5,0(a0)
    18ba:	21de                	lhu	a5,4(a1)
    18bc:	b55e                	sh	a5,44(a0)
    18be:	219e                	lhu	a5,0(a1)
    18c0:	b51e                	sh	a5,40(a0)
    18c2:	400137b7          	lui	a5,0x40013
    18c6:	c0078793          	addi	a5,a5,-1024 # 40012c00 <_eusrstack+0x20011c00>
    18ca:	00f51463          	bne	a0,a5,18d2 <TIM_TimeBaseInit+0x44>
    18ce:	259c                	lbu	a5,8(a1)
    18d0:	b91e                	sh	a5,48(a0)
    18d2:	4785                	li	a5,1
    18d4:	a95e                	sh	a5,20(a0)
    18d6:	8082                	ret
    18d8:	400017b7          	lui	a5,0x40001
    18dc:	80078793          	addi	a5,a5,-2048 # 40000800 <_eusrstack+0x1ffff800>
    18e0:	00f51c63          	bne	a0,a5,18f8 <TIM_TimeBaseInit+0x6a>
    18e4:	211e                	lhu	a5,0(a0)
    18e6:	21ba                	lhu	a4,2(a1)
    18e8:	07c2                	slli	a5,a5,0x10
    18ea:	83c1                	srli	a5,a5,0x10
    18ec:	f8f7f793          	andi	a5,a5,-113
    18f0:	8fd9                	or	a5,a5,a4
    18f2:	a11e                	sh	a5,0(a0)
    18f4:	21de                	lhu	a5,4(a1)
    18f6:	a55e                	sh	a5,12(a0)
    18f8:	8082                	ret

000018fa <TIM_Cmd>:
    18fa:	400137b7          	lui	a5,0x40013
    18fe:	c0078793          	addi	a5,a5,-1024 # 40012c00 <_eusrstack+0x20011c00>
    1902:	c19d                	beqz	a1,1928 <TIM_Cmd+0x2e>
    1904:	00f50663          	beq	a0,a5,1910 <TIM_Cmd+0x16>
    1908:	400007b7          	lui	a5,0x40000
    190c:	00f51763          	bne	a0,a5,191a <TIM_Cmd+0x20>
    1910:	211e                	lhu	a5,0(a0)
    1912:	0017e793          	ori	a5,a5,1
    1916:	a11e                	sh	a5,0(a0)
    1918:	a039                	j	1926 <TIM_Cmd+0x2c>
    191a:	400017b7          	lui	a5,0x40001
    191e:	80078793          	addi	a5,a5,-2048 # 40000800 <_eusrstack+0x1ffff800>
    1922:	fef507e3          	beq	a0,a5,1910 <TIM_Cmd+0x16>
    1926:	8082                	ret
    1928:	00f50663          	beq	a0,a5,1934 <TIM_Cmd+0x3a>
    192c:	400007b7          	lui	a5,0x40000
    1930:	00f51963          	bne	a0,a5,1942 <TIM_Cmd+0x48>
    1934:	211e                	lhu	a5,0(a0)
    1936:	07c2                	slli	a5,a5,0x10
    1938:	83c1                	srli	a5,a5,0x10
    193a:	9bf9                	andi	a5,a5,-2
    193c:	07c2                	slli	a5,a5,0x10
    193e:	83c1                	srli	a5,a5,0x10
    1940:	bfd9                	j	1916 <TIM_Cmd+0x1c>
    1942:	400017b7          	lui	a5,0x40001
    1946:	80078793          	addi	a5,a5,-2048 # 40000800 <_eusrstack+0x1ffff800>
    194a:	fcf51ee3          	bne	a0,a5,1926 <TIM_Cmd+0x2c>
    194e:	b7dd                	j	1934 <TIM_Cmd+0x3a>

00001950 <TIM_SelectOutputTrigger>:
    1950:	215e                	lhu	a5,4(a0)
    1952:	07c2                	slli	a5,a5,0x10
    1954:	83c1                	srli	a5,a5,0x10
    1956:	f8f7f793          	andi	a5,a5,-113
    195a:	07c2                	slli	a5,a5,0x10
    195c:	83c1                	srli	a5,a5,0x10
    195e:	a15e                	sh	a5,4(a0)
    1960:	215e                	lhu	a5,4(a0)
    1962:	8fcd                	or	a5,a5,a1
    1964:	a15e                	sh	a5,4(a0)
    1966:	8082                	ret

00001968 <USART_Init>:
    1968:	f40fe2ef          	jal	t0,a8 <__riscv_save_0>
    196c:	2916                	lhu	a3,16(a0)
    196e:	77f5                	lui	a5,0xffffd
    1970:	17fd                	addi	a5,a5,-1 # ffffcfff <_eusrstack+0xdfffbfff>
    1972:	8efd                	and	a3,a3,a5
    1974:	21fe                	lhu	a5,6(a1)
    1976:	25da                	lhu	a4,12(a1)
    1978:	1121                	addi	sp,sp,-24
    197a:	8fd5                	or	a5,a5,a3
    197c:	a91e                	sh	a5,16(a0)
    197e:	2556                	lhu	a3,12(a0)
    1980:	77fd                	lui	a5,0xfffff
    1982:	9f378793          	addi	a5,a5,-1549 # ffffe9f3 <_eusrstack+0xdfffd9f3>
    1986:	8efd                	and	a3,a3,a5
    1988:	21de                	lhu	a5,4(a1)
    198a:	842a                	mv	s0,a0
    198c:	84ae                	mv	s1,a1
    198e:	8fd5                	or	a5,a5,a3
    1990:	2596                	lhu	a3,8(a1)
    1992:	8fd5                	or	a5,a5,a3
    1994:	25b6                	lhu	a3,10(a1)
    1996:	8fd5                	or	a5,a5,a3
    1998:	a55e                	sh	a5,12(a0)
    199a:	295e                	lhu	a5,20(a0)
    199c:	07c2                	slli	a5,a5,0x10
    199e:	83c1                	srli	a5,a5,0x10
    19a0:	cff7f793          	andi	a5,a5,-769
    19a4:	8fd9                	or	a5,a5,a4
    19a6:	a95e                	sh	a5,20(a0)
    19a8:	0048                	addi	a0,sp,4
    19aa:	33e9                	jal	1774 <RCC_GetClocksFreq>
    19ac:	400147b7          	lui	a5,0x40014
    19b0:	80078793          	addi	a5,a5,-2048 # 40013800 <_eusrstack+0x20012800>
    19b4:	04f41563          	bne	s0,a5,19fe <USART_Init+0x96>
    19b8:	47c2                	lw	a5,16(sp)
    19ba:	4565                	li	a0,25
    19bc:	02a78533          	mul	a0,a5,a0
    19c0:	408c                	lw	a1,0(s1)
    19c2:	058a                	slli	a1,a1,0x2
    19c4:	f00fe0ef          	jal	ra,c4 <__hidden___udivsi3>
    19c8:	06400593          	li	a1,100
    19cc:	c02a                	sw	a0,0(sp)
    19ce:	ef6fe0ef          	jal	ra,c4 <__hidden___udivsi3>
    19d2:	00451493          	slli	s1,a0,0x4
    19d6:	4502                	lw	a0,0(sp)
    19d8:	06400593          	li	a1,100
    19dc:	f14fe0ef          	jal	ra,f0 <__umodsi3>
    19e0:	0512                	slli	a0,a0,0x4
    19e2:	06400593          	li	a1,100
    19e6:	03250513          	addi	a0,a0,50 # 40011032 <_eusrstack+0x20010032>
    19ea:	edafe0ef          	jal	ra,c4 <__hidden___udivsi3>
    19ee:	893d                	andi	a0,a0,15
    19f0:	8d45                	or	a0,a0,s1
    19f2:	0542                	slli	a0,a0,0x10
    19f4:	8141                	srli	a0,a0,0x10
    19f6:	a40a                	sh	a0,8(s0)
    19f8:	0161                	addi	sp,sp,24
    19fa:	eb8fe06f          	j	b2 <__riscv_restore_0>
    19fe:	47b2                	lw	a5,12(sp)
    1a00:	bf6d                	j	19ba <USART_Init+0x52>

00001a02 <USART_Cmd>:
    1a02:	255e                	lhu	a5,12(a0)
    1a04:	c589                	beqz	a1,1a0e <USART_Cmd+0xc>
    1a06:	6709                	lui	a4,0x2
    1a08:	8fd9                	or	a5,a5,a4
    1a0a:	a55e                	sh	a5,12(a0)
    1a0c:	8082                	ret
    1a0e:	7779                	lui	a4,0xffffe
    1a10:	177d                	addi	a4,a4,-1 # ffffdfff <_eusrstack+0xdfffcfff>
    1a12:	8ff9                	and	a5,a5,a4
    1a14:	bfdd                	j	1a0a <USART_Cmd+0x8>

00001a16 <USART_SendData>:
    1a16:	1ff5f593          	andi	a1,a1,511
    1a1a:	a14e                	sh	a1,4(a0)
    1a1c:	8082                	ret

00001a1e <USART_GetFlagStatus>:
    1a1e:	210a                	lhu	a0,0(a0)
    1a20:	8d6d                	and	a0,a0,a1
    1a22:	00a03533          	snez	a0,a0
    1a26:	8082                	ret

00001a28 <Delay_Init>:
    1a28:	e80fe2ef          	jal	t0,a8 <__riscv_save_0>
    1a2c:	200007b7          	lui	a5,0x20000
    1a30:	0347a503          	lw	a0,52(a5) # 20000034 <SystemCoreClock>
    1a34:	007a15b7          	lui	a1,0x7a1
    1a38:	20058593          	addi	a1,a1,512 # 7a1200 <_data_lma+0x79e098>
    1a3c:	e88fe0ef          	jal	ra,c4 <__hidden___udivsi3>
    1a40:	0ff57513          	zext.b	a0,a0
    1a44:	aca18723          	sb	a0,-1330(gp) # 2000038e <p_us>
    1a48:	3e800793          	li	a5,1000
    1a4c:	02f50533          	mul	a0,a0,a5
    1a50:	aca19623          	sh	a0,-1332(gp) # 2000038c <p_ms>
    1a54:	e5efe06f          	j	b2 <__riscv_restore_0>

00001a58 <USART_Printf_Init>:
    1a58:	e50fe2ef          	jal	t0,a8 <__riscv_save_0>
    1a5c:	842a                	mv	s0,a0
    1a5e:	6511                	lui	a0,0x4
    1a60:	1111                	addi	sp,sp,-28
    1a62:	4585                	li	a1,1
    1a64:	02150513          	addi	a0,a0,33 # 4021 <_data_lma+0xeb9>
    1a68:	33f1                	jal	1834 <RCC_PB2PeriphClockCmd>
    1a6a:	00160537          	lui	a0,0x160
    1a6e:	4585                	li	a1,1
    1a70:	04050513          	addi	a0,a0,64 # 160040 <_data_lma+0x15ced8>
    1a74:	f50ff0ef          	jal	ra,11c4 <GPIO_PinRemapConfig>
    1a78:	04000793          	li	a5,64
    1a7c:	807c                	sh	a5,0(sp)
    1a7e:	40011537          	lui	a0,0x40011
    1a82:	4785                	li	a5,1
    1a84:	c23e                	sw	a5,4(sp)
    1a86:	858a                	mv	a1,sp
    1a88:	47e1                	li	a5,24
    1a8a:	40050513          	addi	a0,a0,1024 # 40011400 <_eusrstack+0x20010400>
    1a8e:	c43e                	sw	a5,8(sp)
    1a90:	ebeff0ef          	jal	ra,114e <GPIO_Init>
    1a94:	c622                	sw	s0,12(sp)
    1a96:	40014437          	lui	s0,0x40014
    1a9a:	000807b7          	lui	a5,0x80
    1a9e:	006c                	addi	a1,sp,12
    1aa0:	80040513          	addi	a0,s0,-2048 # 40013800 <_eusrstack+0x20012800>
    1aa4:	ca3e                	sw	a5,20(sp)
    1aa6:	c802                	sw	zero,16(sp)
    1aa8:	00011c23          	sh	zero,24(sp)
    1aac:	3d75                	jal	1968 <USART_Init>
    1aae:	4585                	li	a1,1
    1ab0:	80040513          	addi	a0,s0,-2048
    1ab4:	37b9                	jal	1a02 <USART_Cmd>
    1ab6:	0171                	addi	sp,sp,28
    1ab8:	dfafe06f          	j	b2 <__riscv_restore_0>

00001abc <sqrtf>:
    1abc:	1151                	addi	sp,sp,-12
    1abe:	c222                	sw	s0,4(sp)
    1ac0:	c026                	sw	s1,0(sp)
    1ac2:	c406                	sw	ra,8(sp)
    1ac4:	84aa                	mv	s1,a0
    1ac6:	2835                	jal	1b02 <__ieee754_sqrtf>
    1ac8:	842a                	mv	s0,a0
    1aca:	85a6                	mv	a1,s1
    1acc:	8526                	mv	a0,s1
    1ace:	7c7000ef          	jal	ra,2a94 <__unordsf2>
    1ad2:	e115                	bnez	a0,1af6 <sqrtf+0x3a>
    1ad4:	00000593          	li	a1,0
    1ad8:	8526                	mv	a0,s1
    1ada:	0c7000ef          	jal	ra,23a0 <__lesf2>
    1ade:	00055c63          	bgez	a0,1af6 <sqrtf+0x3a>
    1ae2:	230010ef          	jal	ra,2d12 <__errno>
    1ae6:	02100793          	li	a5,33
    1aea:	00000593          	li	a1,0
    1aee:	c11c                	sw	a5,0(a0)
    1af0:	852e                	mv	a0,a1
    1af2:	23ad                	jal	205c <__divsf3>
    1af4:	842a                	mv	s0,a0
    1af6:	40a2                	lw	ra,8(sp)
    1af8:	8522                	mv	a0,s0
    1afa:	4412                	lw	s0,4(sp)
    1afc:	4482                	lw	s1,0(sp)
    1afe:	0131                	addi	sp,sp,12
    1b00:	8082                	ret

00001b02 <__ieee754_sqrtf>:
    1b02:	1141                	addi	sp,sp,-16
    1b04:	00151793          	slli	a5,a0,0x1
    1b08:	c422                	sw	s0,8(sp)
    1b0a:	c606                	sw	ra,12(sp)
    1b0c:	c226                	sw	s1,4(sp)
    1b0e:	8385                	srli	a5,a5,0x1
    1b10:	7f8006b7          	lui	a3,0x7f800
    1b14:	842a                	mv	s0,a0
    1b16:	00d7ef63          	bltu	a5,a3,1b34 <__ieee754_sqrtf+0x32>
    1b1a:	85aa                	mv	a1,a0
    1b1c:	11d000ef          	jal	ra,2438 <__mulsf3>
    1b20:	85aa                	mv	a1,a0
    1b22:	8522                	mv	a0,s0
    1b24:	2ae9                	jal	1cfe <__addsf3>
    1b26:	842a                	mv	s0,a0
    1b28:	40b2                	lw	ra,12(sp)
    1b2a:	8522                	mv	a0,s0
    1b2c:	4422                	lw	s0,8(sp)
    1b2e:	4492                	lw	s1,4(sp)
    1b30:	0141                	addi	sp,sp,16
    1b32:	8082                	ret
    1b34:	dbf5                	beqz	a5,1b28 <__ieee754_sqrtf+0x26>
    1b36:	87aa                	mv	a5,a0
    1b38:	00055863          	bgez	a0,1b48 <__ieee754_sqrtf+0x46>
    1b3c:	85aa                	mv	a1,a0
    1b3e:	3d7000ef          	jal	ra,2714 <__subsf3>
    1b42:	85aa                	mv	a1,a0
    1b44:	2b21                	jal	205c <__divsf3>
    1b46:	b7c5                	j	1b26 <__ieee754_sqrtf+0x24>
    1b48:	8ee9                	and	a3,a3,a0
    1b4a:	41755713          	srai	a4,a0,0x17
    1b4e:	ced5                	beqz	a3,1c0a <__ieee754_sqrtf+0x108>
    1b50:	008006b7          	lui	a3,0x800
    1b54:	fff68613          	addi	a2,a3,-1 # 7fffff <_data_lma+0x7fce97>
    1b58:	f8170713          	addi	a4,a4,-127
    1b5c:	8ff1                	and	a5,a5,a2
    1b5e:	8fd5                	or	a5,a5,a3
    1b60:	00177693          	andi	a3,a4,1
    1b64:	c291                	beqz	a3,1b68 <__ieee754_sqrtf+0x66>
    1b66:	0786                	slli	a5,a5,0x1
    1b68:	40175413          	srai	s0,a4,0x1
    1b6c:	45e5                	li	a1,25
    1b6e:	00179713          	slli	a4,a5,0x1
    1b72:	4481                	li	s1,0
    1b74:	4301                	li	t1,0
    1b76:	01000637          	lui	a2,0x1000
    1b7a:	00c30533          	add	a0,t1,a2
    1b7e:	86ba                	mv	a3,a4
    1b80:	00a74763          	blt	a4,a0,1b8e <__ieee754_sqrtf+0x8c>
    1b84:	00c50333          	add	t1,a0,a2
    1b88:	40a706b3          	sub	a3,a4,a0
    1b8c:	94b2                	add	s1,s1,a2
    1b8e:	15fd                	addi	a1,a1,-1
    1b90:	00169713          	slli	a4,a3,0x1
    1b94:	8205                	srli	a2,a2,0x1
    1b96:	f1f5                	bnez	a1,1b7a <__ieee754_sqrtf+0x78>
    1b98:	caa9                	beqz	a3,1bea <__ieee754_sqrtf+0xe8>
    1b9a:	1fffe717          	auipc	a4,0x1fffe
    1b9e:	52a70713          	addi	a4,a4,1322 # 200000c4 <one>
    1ba2:	1fffe697          	auipc	a3,0x1fffe
    1ba6:	51e68693          	addi	a3,a3,1310 # 200000c0 <tiny>
    1baa:	4308                	lw	a0,0(a4)
    1bac:	428c                	lw	a1,0(a3)
    1bae:	431c                	lw	a5,0(a4)
    1bb0:	c03e                	sw	a5,0(sp)
    1bb2:	363000ef          	jal	ra,2714 <__subsf3>
    1bb6:	85aa                	mv	a1,a0
    1bb8:	4502                	lw	a0,0(sp)
    1bba:	7e6000ef          	jal	ra,23a0 <__lesf2>
    1bbe:	02a04663          	bgtz	a0,1bea <__ieee754_sqrtf+0xe8>
    1bc2:	1fffe717          	auipc	a4,0x1fffe
    1bc6:	50270713          	addi	a4,a4,1282 # 200000c4 <one>
    1bca:	1fffe697          	auipc	a3,0x1fffe
    1bce:	4f668693          	addi	a3,a3,1270 # 200000c0 <tiny>
    1bd2:	4308                	lw	a0,0(a4)
    1bd4:	428c                	lw	a1,0(a3)
    1bd6:	431c                	lw	a5,0(a4)
    1bd8:	c03e                	sw	a5,0(sp)
    1bda:	2215                	jal	1cfe <__addsf3>
    1bdc:	85aa                	mv	a1,a0
    1bde:	4502                	lw	a0,0(sp)
    1be0:	7c0000ef          	jal	ra,23a0 <__lesf2>
    1be4:	02055763          	bgez	a0,1c12 <__ieee754_sqrtf+0x110>
    1be8:	0489                	addi	s1,s1,2
    1bea:	4014d793          	srai	a5,s1,0x1
    1bee:	3f000737          	lui	a4,0x3f000
    1bf2:	97ba                	add	a5,a5,a4
    1bf4:	045e                	slli	s0,s0,0x17
    1bf6:	943e                	add	s0,s0,a5
    1bf8:	bf05                	j	1b28 <__ieee754_sqrtf+0x26>
    1bfa:	0786                	slli	a5,a5,0x1
    1bfc:	0685                	addi	a3,a3,1
    1bfe:	00b7f633          	and	a2,a5,a1
    1c02:	de65                	beqz	a2,1bfa <__ieee754_sqrtf+0xf8>
    1c04:	16fd                	addi	a3,a3,-1
    1c06:	8f15                	sub	a4,a4,a3
    1c08:	b7a1                	j	1b50 <__ieee754_sqrtf+0x4e>
    1c0a:	4681                	li	a3,0
    1c0c:	008005b7          	lui	a1,0x800
    1c10:	b7fd                	j	1bfe <__ieee754_sqrtf+0xfc>
    1c12:	00148793          	addi	a5,s1,1
    1c16:	ffe7f493          	andi	s1,a5,-2
    1c1a:	bfc1                	j	1bea <__ieee754_sqrtf+0xe8>

00001c1c <__gedf2>:
    1c1c:	0145d313          	srli	t1,a1,0x14
    1c20:	001007b7          	lui	a5,0x100
    1c24:	17fd                	addi	a5,a5,-1 # fffff <_data_lma+0xfce97>
    1c26:	872a                	mv	a4,a0
    1c28:	7ff37313          	andi	t1,t1,2047
    1c2c:	0146d513          	srli	a0,a3,0x14
    1c30:	7ff00393          	li	t2,2047
    1c34:	00b7f2b3          	and	t0,a5,a1
    1c38:	7ff57513          	andi	a0,a0,2047
    1c3c:	8ff5                	and	a5,a5,a3
    1c3e:	81fd                	srli	a1,a1,0x1f
    1c40:	82fd                	srli	a3,a3,0x1f
    1c42:	04730263          	beq	t1,t2,1c86 <__gedf2+0x6a>
    1c46:	02750563          	beq	a0,t2,1c70 <__gedf2+0x54>
    1c4a:	1161                	addi	sp,sp,-8
    1c4c:	c222                	sw	s0,4(sp)
    1c4e:	c026                	sw	s1,0(sp)
    1c50:	843a                	mv	s0,a4
    1c52:	84b2                	mv	s1,a2
    1c54:	04031e63          	bnez	t1,1cb0 <__gedf2+0x94>
    1c58:	00e2e733          	or	a4,t0,a4
    1c5c:	e521                	bnez	a0,1ca4 <__gedf2+0x88>
    1c5e:	8e5d                	or	a2,a2,a5
    1c60:	ce29                	beqz	a2,1cba <__gedf2+0x9e>
    1c62:	eb3d                	bnez	a4,1cd8 <__gedf2+0xbc>
    1c64:	caa9                	beqz	a3,1cb6 <__gedf2+0x9a>
    1c66:	4412                	lw	s0,4(sp)
    1c68:	4482                	lw	s1,0(sp)
    1c6a:	8536                	mv	a0,a3
    1c6c:	0121                	addi	sp,sp,8
    1c6e:	8082                	ret
    1c70:	8fd1                	or	a5,a5,a2
    1c72:	e3ad                	bnez	a5,1cd4 <__gedf2+0xb8>
    1c74:	02031363          	bnez	t1,1c9a <__gedf2+0x7e>
    1c78:	00e2e2b3          	or	t0,t0,a4
    1c7c:	00029f63          	bnez	t0,1c9a <__gedf2+0x7e>
    1c80:	ca99                	beqz	a3,1c96 <__gedf2+0x7a>
    1c82:	8536                	mv	a0,a3
    1c84:	8082                	ret
    1c86:	00e2e2b3          	or	t0,t0,a4
    1c8a:	04029563          	bnez	t0,1cd4 <__gedf2+0xb8>
    1c8e:	02650d63          	beq	a0,t1,1cc8 <__gedf2+0xac>
    1c92:	4685                	li	a3,1
    1c94:	d5fd                	beqz	a1,1c82 <__gedf2+0x66>
    1c96:	56fd                	li	a3,-1
    1c98:	b7ed                	j	1c82 <__gedf2+0x66>
    1c9a:	fed59ce3          	bne	a1,a3,1c92 <__gedf2+0x76>
    1c9e:	dde5                	beqz	a1,1c96 <__gedf2+0x7a>
    1ca0:	86ae                	mv	a3,a1
    1ca2:	b7c5                	j	1c82 <__gedf2+0x66>
    1ca4:	d361                	beqz	a4,1c64 <__gedf2+0x48>
    1ca6:	00d59663          	bne	a1,a3,1cb2 <__gedf2+0x96>
    1caa:	c591                	beqz	a1,1cb6 <__gedf2+0x9a>
    1cac:	86ae                	mv	a3,a1
    1cae:	bf65                	j	1c66 <__gedf2+0x4a>
    1cb0:	e121                	bnez	a0,1cf0 <__gedf2+0xd4>
    1cb2:	4685                	li	a3,1
    1cb4:	d9cd                	beqz	a1,1c66 <__gedf2+0x4a>
    1cb6:	56fd                	li	a3,-1
    1cb8:	b77d                	j	1c66 <__gedf2+0x4a>
    1cba:	4681                	li	a3,0
    1cbc:	fb7d                	bnez	a4,1cb2 <__gedf2+0x96>
    1cbe:	4412                	lw	s0,4(sp)
    1cc0:	4482                	lw	s1,0(sp)
    1cc2:	8536                	mv	a0,a3
    1cc4:	0121                	addi	sp,sp,8
    1cc6:	8082                	ret
    1cc8:	8fd1                	or	a5,a5,a2
    1cca:	e789                	bnez	a5,1cd4 <__gedf2+0xb8>
    1ccc:	fcd593e3          	bne	a1,a3,1c92 <__gedf2+0x76>
    1cd0:	4681                	li	a3,0
    1cd2:	bf45                	j	1c82 <__gedf2+0x66>
    1cd4:	56f9                	li	a3,-2
    1cd6:	b775                	j	1c82 <__gedf2+0x66>
    1cd8:	fcd59de3          	bne	a1,a3,1cb2 <__gedf2+0x96>
    1cdc:	fc57ebe3          	bltu	a5,t0,1cb2 <__gedf2+0x96>
    1ce0:	fcf295e3          	bne	t0,a5,1caa <__gedf2+0x8e>
    1ce4:	fc84e7e3          	bltu	s1,s0,1cb2 <__gedf2+0x96>
    1ce8:	4681                	li	a3,0
    1cea:	f6947ee3          	bgeu	s0,s1,1c66 <__gedf2+0x4a>
    1cee:	bf75                	j	1caa <__gedf2+0x8e>
    1cf0:	fcd591e3          	bne	a1,a3,1cb2 <__gedf2+0x96>
    1cf4:	fa654fe3          	blt	a0,t1,1cb2 <__gedf2+0x96>
    1cf8:	fea352e3          	bge	t1,a0,1cdc <__gedf2+0xc0>
    1cfc:	b77d                	j	1caa <__gedf2+0x8e>

00001cfe <__addsf3>:
    1cfe:	1141                	addi	sp,sp,-16
    1d00:	00800737          	lui	a4,0x800
    1d04:	177d                	addi	a4,a4,-1 # 7fffff <_data_lma+0x7fce97>
    1d06:	0175d693          	srli	a3,a1,0x17
    1d0a:	c226                	sw	s1,4(sp)
    1d0c:	01755493          	srli	s1,a0,0x17
    1d10:	00a777b3          	and	a5,a4,a0
    1d14:	c422                	sw	s0,8(sp)
    1d16:	8f6d                	and	a4,a4,a1
    1d18:	0ff4f493          	zext.b	s1,s1
    1d1c:	01f55413          	srli	s0,a0,0x1f
    1d20:	c606                	sw	ra,12(sp)
    1d22:	0ff6f513          	zext.b	a0,a3
    1d26:	81fd                	srli	a1,a1,0x1f
    1d28:	078e                	slli	a5,a5,0x3
    1d2a:	070e                	slli	a4,a4,0x3
    1d2c:	40a48633          	sub	a2,s1,a0
    1d30:	04b40163          	beq	s0,a1,1d72 <__addsf3+0x74>
    1d34:	00c05f63          	blez	a2,1d52 <__addsf3+0x54>
    1d38:	ed31                	bnez	a0,1d94 <__addsf3+0x96>
    1d3a:	10070e63          	beqz	a4,1e56 <__addsf3+0x158>
    1d3e:	fff60693          	addi	a3,a2,-1 # ffffff <_data_lma+0xffce97>
    1d42:	2a068b63          	beqz	a3,1ff8 <__addsf3+0x2fa>
    1d46:	0ff00593          	li	a1,255
    1d4a:	16b60a63          	beq	a2,a1,1ebe <__addsf3+0x1c0>
    1d4e:	8636                	mv	a2,a3
    1d50:	a889                	j	1da2 <__addsf3+0xa4>
    1d52:	c261                	beqz	a2,1e12 <__addsf3+0x114>
    1d54:	40950633          	sub	a2,a0,s1
    1d58:	1c049963          	bnez	s1,1f2a <__addsf3+0x22c>
    1d5c:	cbfd                	beqz	a5,1e52 <__addsf3+0x154>
    1d5e:	fff60693          	addi	a3,a2,-1
    1d62:	2c068563          	beqz	a3,202c <__addsf3+0x32e>
    1d66:	0ff00313          	li	t1,255
    1d6a:	14660863          	beq	a2,t1,1eba <__addsf3+0x1bc>
    1d6e:	8636                	mv	a2,a3
    1d70:	a2e1                	j	1f38 <__addsf3+0x23a>
    1d72:	86a2                	mv	a3,s0
    1d74:	14c05763          	blez	a2,1ec2 <__addsf3+0x1c4>
    1d78:	c171                	beqz	a0,1e3c <__addsf3+0x13e>
    1d7a:	0ff00593          	li	a1,255
    1d7e:	14b48063          	beq	s1,a1,1ebe <__addsf3+0x1c0>
    1d82:	040005b7          	lui	a1,0x4000
    1d86:	8f4d                	or	a4,a4,a1
    1d88:	45ed                	li	a1,27
    1d8a:	1ec5d663          	bge	a1,a2,1f76 <__addsf3+0x278>
    1d8e:	0785                	addi	a5,a5,1
    1d90:	8626                	mv	a2,s1
    1d92:	a089                	j	1dd4 <__addsf3+0xd6>
    1d94:	0ff00693          	li	a3,255
    1d98:	12d48363          	beq	s1,a3,1ebe <__addsf3+0x1c0>
    1d9c:	040006b7          	lui	a3,0x4000
    1da0:	8f55                	or	a4,a4,a3
    1da2:	45ed                	li	a1,27
    1da4:	4685                	li	a3,1
    1da6:	00c5cd63          	blt	a1,a2,1dc0 <__addsf3+0xc2>
    1daa:	02000693          	li	a3,32
    1dae:	8e91                	sub	a3,a3,a2
    1db0:	00d716b3          	sll	a3,a4,a3
    1db4:	00c75633          	srl	a2,a4,a2
    1db8:	00d03733          	snez	a4,a3
    1dbc:	00e666b3          	or	a3,a2,a4
    1dc0:	8f95                	sub	a5,a5,a3
    1dc2:	04000737          	lui	a4,0x4000
    1dc6:	00e7f6b3          	and	a3,a5,a4
    1dca:	e6d5                	bnez	a3,1e76 <__addsf3+0x178>
    1dcc:	0077f713          	andi	a4,a5,7
    1dd0:	8626                	mv	a2,s1
    1dd2:	c351                	beqz	a4,1e56 <__addsf3+0x158>
    1dd4:	00f7f713          	andi	a4,a5,15
    1dd8:	4691                	li	a3,4
    1dda:	00d70363          	beq	a4,a3,1de0 <__addsf3+0xe2>
    1dde:	0791                	addi	a5,a5,4
    1de0:	04000737          	lui	a4,0x4000
    1de4:	8f7d                	and	a4,a4,a5
    1de6:	cb25                	beqz	a4,1e56 <__addsf3+0x158>
    1de8:	00160513          	addi	a0,a2,1
    1dec:	0ff00713          	li	a4,255
    1df0:	86a2                	mv	a3,s0
    1df2:	06e50e63          	beq	a0,a4,1e6e <__addsf3+0x170>
    1df6:	00679713          	slli	a4,a5,0x6
    1dfa:	0ff57513          	zext.b	a0,a0
    1dfe:	8325                	srli	a4,a4,0x9
    1e00:	40b2                	lw	ra,12(sp)
    1e02:	4422                	lw	s0,8(sp)
    1e04:	055e                	slli	a0,a0,0x17
    1e06:	8d59                	or	a0,a0,a4
    1e08:	06fe                	slli	a3,a3,0x1f
    1e0a:	4492                	lw	s1,4(sp)
    1e0c:	8d55                	or	a0,a0,a3
    1e0e:	0141                	addi	sp,sp,16
    1e10:	8082                	ret
    1e12:	00148693          	addi	a3,s1,1
    1e16:	0fe6f693          	andi	a3,a3,254
    1e1a:	14069363          	bnez	a3,1f60 <__addsf3+0x262>
    1e1e:	e8d9                	bnez	s1,1eb4 <__addsf3+0x1b6>
    1e20:	20078263          	beqz	a5,2024 <__addsf3+0x326>
    1e24:	cb75                	beqz	a4,1f18 <__addsf3+0x21a>
    1e26:	40e78533          	sub	a0,a5,a4
    1e2a:	040006b7          	lui	a3,0x4000
    1e2e:	8ee9                	and	a3,a3,a0
    1e30:	22068263          	beqz	a3,2054 <__addsf3+0x356>
    1e34:	40f707b3          	sub	a5,a4,a5
    1e38:	842e                	mv	s0,a1
    1e3a:	a88d                	j	1eac <__addsf3+0x1ae>
    1e3c:	cf09                	beqz	a4,1e56 <__addsf3+0x158>
    1e3e:	fff60593          	addi	a1,a2,-1
    1e42:	1a058363          	beqz	a1,1fe8 <__addsf3+0x2ea>
    1e46:	0ff00513          	li	a0,255
    1e4a:	06a60a63          	beq	a2,a0,1ebe <__addsf3+0x1c0>
    1e4e:	862e                	mv	a2,a1
    1e50:	bf25                	j	1d88 <__addsf3+0x8a>
    1e52:	842e                	mv	s0,a1
    1e54:	87ba                	mv	a5,a4
    1e56:	0ff00713          	li	a4,255
    1e5a:	838d                	srli	a5,a5,0x3
    1e5c:	0ce61063          	bne	a2,a4,1f1c <__addsf3+0x21e>
    1e60:	cfc9                	beqz	a5,1efa <__addsf3+0x1fc>
    1e62:	4681                	li	a3,0
    1e64:	0ff00513          	li	a0,255
    1e68:	00400737          	lui	a4,0x400
    1e6c:	bf51                	j	1e00 <__addsf3+0x102>
    1e6e:	0ff00513          	li	a0,255
    1e72:	4701                	li	a4,0
    1e74:	b771                	j	1e00 <__addsf3+0x102>
    1e76:	177d                	addi	a4,a4,-1 # 3fffff <_data_lma+0x3fce97>
    1e78:	00e7f6b3          	and	a3,a5,a4
    1e7c:	8536                	mv	a0,a3
    1e7e:	c036                	sw	a3,0(sp)
    1e80:	62b000ef          	jal	ra,2caa <__clzsi2>
    1e84:	4682                	lw	a3,0(sp)
    1e86:	156d                	addi	a0,a0,-5
    1e88:	00a696b3          	sll	a3,a3,a0
    1e8c:	06954063          	blt	a0,s1,1eec <__addsf3+0x1ee>
    1e90:	8d05                	sub	a0,a0,s1
    1e92:	00150793          	addi	a5,a0,1
    1e96:	02000713          	li	a4,32
    1e9a:	8f1d                	sub	a4,a4,a5
    1e9c:	00e69733          	sll	a4,a3,a4
    1ea0:	00f6d7b3          	srl	a5,a3,a5
    1ea4:	00e03733          	snez	a4,a4
    1ea8:	8fd9                	or	a5,a5,a4
    1eaa:	4601                	li	a2,0
    1eac:	0077f713          	andi	a4,a5,7
    1eb0:	f315                	bnez	a4,1dd4 <__addsf3+0xd6>
    1eb2:	b73d                	j	1de0 <__addsf3+0xe2>
    1eb4:	14079763          	bnez	a5,2002 <__addsf3+0x304>
    1eb8:	d74d                	beqz	a4,1e62 <__addsf3+0x164>
    1eba:	842e                	mv	s0,a1
    1ebc:	87ba                	mv	a5,a4
    1ebe:	838d                	srli	a5,a5,0x3
    1ec0:	b745                	j	1e60 <__addsf3+0x162>
    1ec2:	c229                	beqz	a2,1f04 <__addsf3+0x206>
    1ec4:	40950633          	sub	a2,a0,s1
    1ec8:	e4fd                	bnez	s1,1fb6 <__addsf3+0x2b8>
    1eca:	d7c9                	beqz	a5,1e54 <__addsf3+0x156>
    1ecc:	fff60593          	addi	a1,a2,-1
    1ed0:	10058c63          	beqz	a1,1fe8 <__addsf3+0x2ea>
    1ed4:	0ff00313          	li	t1,255
    1ed8:	fe6602e3          	beq	a2,t1,1ebc <__addsf3+0x1be>
    1edc:	862e                	mv	a2,a1
    1ede:	45ed                	li	a1,27
    1ee0:	12c5d563          	bge	a1,a2,200a <__addsf3+0x30c>
    1ee4:	00170793          	addi	a5,a4,1
    1ee8:	862a                	mv	a2,a0
    1eea:	b5ed                	j	1dd4 <__addsf3+0xd6>
    1eec:	fc0007b7          	lui	a5,0xfc000
    1ef0:	17fd                	addi	a5,a5,-1 # fbffffff <_eusrstack+0xdbffefff>
    1ef2:	40a48633          	sub	a2,s1,a0
    1ef6:	8ff5                	and	a5,a5,a3
    1ef8:	bf55                	j	1eac <__addsf3+0x1ae>
    1efa:	86a2                	mv	a3,s0
    1efc:	0ff00513          	li	a0,255
    1f00:	4701                	li	a4,0
    1f02:	bdfd                	j	1e00 <__addsf3+0x102>
    1f04:	00148613          	addi	a2,s1,1
    1f08:	0fe67593          	andi	a1,a2,254
    1f0c:	edcd                	bnez	a1,1fc6 <__addsf3+0x2c8>
    1f0e:	e8e5                	bnez	s1,1ffe <__addsf3+0x300>
    1f10:	12078363          	beqz	a5,2036 <__addsf3+0x338>
    1f14:	12071363          	bnez	a4,203a <__addsf3+0x33c>
    1f18:	838d                	srli	a5,a5,0x3
    1f1a:	4601                	li	a2,0
    1f1c:	07a6                	slli	a5,a5,0x9
    1f1e:	0097d713          	srli	a4,a5,0x9
    1f22:	0ff67513          	zext.b	a0,a2
    1f26:	86a2                	mv	a3,s0
    1f28:	bde1                	j	1e00 <__addsf3+0x102>
    1f2a:	0ff00693          	li	a3,255
    1f2e:	f8d506e3          	beq	a0,a3,1eba <__addsf3+0x1bc>
    1f32:	040006b7          	lui	a3,0x4000
    1f36:	8fd5                	or	a5,a5,a3
    1f38:	436d                	li	t1,27
    1f3a:	4685                	li	a3,1
    1f3c:	00c34d63          	blt	t1,a2,1f56 <__addsf3+0x258>
    1f40:	02000693          	li	a3,32
    1f44:	8e91                	sub	a3,a3,a2
    1f46:	00d796b3          	sll	a3,a5,a3
    1f4a:	00c7d633          	srl	a2,a5,a2
    1f4e:	00d037b3          	snez	a5,a3
    1f52:	00f666b3          	or	a3,a2,a5
    1f56:	40d707b3          	sub	a5,a4,a3
    1f5a:	84aa                	mv	s1,a0
    1f5c:	842e                	mv	s0,a1
    1f5e:	b595                	j	1dc2 <__addsf3+0xc4>
    1f60:	40e786b3          	sub	a3,a5,a4
    1f64:	04000637          	lui	a2,0x4000
    1f68:	8e75                	and	a2,a2,a3
    1f6a:	ea3d                	bnez	a2,1fe0 <__addsf3+0x2e2>
    1f6c:	fa81                	bnez	a3,1e7c <__addsf3+0x17e>
    1f6e:	4681                	li	a3,0
    1f70:	4501                	li	a0,0
    1f72:	4701                	li	a4,0
    1f74:	b571                	j	1e00 <__addsf3+0x102>
    1f76:	02000593          	li	a1,32
    1f7a:	8d91                	sub	a1,a1,a2
    1f7c:	00b715b3          	sll	a1,a4,a1
    1f80:	00c75733          	srl	a4,a4,a2
    1f84:	00b03633          	snez	a2,a1
    1f88:	8f51                	or	a4,a4,a2
    1f8a:	97ba                	add	a5,a5,a4
    1f8c:	04000737          	lui	a4,0x4000
    1f90:	8f7d                	and	a4,a4,a5
    1f92:	e2070de3          	beqz	a4,1dcc <__addsf3+0xce>
    1f96:	00148613          	addi	a2,s1,1
    1f9a:	0ff00513          	li	a0,255
    1f9e:	4701                	li	a4,0
    1fa0:	e6a600e3          	beq	a2,a0,1e00 <__addsf3+0x102>
    1fa4:	7e0006b7          	lui	a3,0x7e000
    1fa8:	0017d713          	srli	a4,a5,0x1
    1fac:	16fd                	addi	a3,a3,-1 # 7dffffff <_eusrstack+0x5dffefff>
    1fae:	8b85                	andi	a5,a5,1
    1fb0:	8f75                	and	a4,a4,a3
    1fb2:	8fd9                	or	a5,a5,a4
    1fb4:	bde5                	j	1eac <__addsf3+0x1ae>
    1fb6:	0ff00593          	li	a1,255
    1fba:	f0b501e3          	beq	a0,a1,1ebc <__addsf3+0x1be>
    1fbe:	040005b7          	lui	a1,0x4000
    1fc2:	8fcd                	or	a5,a5,a1
    1fc4:	bf29                	j	1ede <__addsf3+0x1e0>
    1fc6:	0ff00593          	li	a1,255
    1fca:	eab602e3          	beq	a2,a1,1e6e <__addsf3+0x170>
    1fce:	973e                	add	a4,a4,a5
    1fd0:	00175793          	srli	a5,a4,0x1
    1fd4:	0077f693          	andi	a3,a5,7
    1fd8:	de069ee3          	bnez	a3,1dd4 <__addsf3+0xd6>
    1fdc:	838d                	srli	a5,a5,0x3
    1fde:	bf3d                	j	1f1c <__addsf3+0x21e>
    1fe0:	40f706b3          	sub	a3,a4,a5
    1fe4:	842e                	mv	s0,a1
    1fe6:	bd59                	j	1e7c <__addsf3+0x17e>
    1fe8:	97ba                	add	a5,a5,a4
    1fea:	04000737          	lui	a4,0x4000
    1fee:	8f7d                	and	a4,a4,a5
    1ff0:	4609                	li	a2,2
    1ff2:	4485                	li	s1,1
    1ff4:	fb45                	bnez	a4,1fa4 <__addsf3+0x2a6>
    1ff6:	bbd9                	j	1dcc <__addsf3+0xce>
    1ff8:	8f99                	sub	a5,a5,a4
    1ffa:	4485                	li	s1,1
    1ffc:	b3d9                	j	1dc2 <__addsf3+0xc4>
    1ffe:	ea078fe3          	beqz	a5,1ebc <__addsf3+0x1be>
    2002:	e60710e3          	bnez	a4,1e62 <__addsf3+0x164>
    2006:	838d                	srli	a5,a5,0x3
    2008:	bda1                	j	1e60 <__addsf3+0x162>
    200a:	02000593          	li	a1,32
    200e:	8d91                	sub	a1,a1,a2
    2010:	00b795b3          	sll	a1,a5,a1
    2014:	00c7d7b3          	srl	a5,a5,a2
    2018:	00b03633          	snez	a2,a1
    201c:	8fd1                	or	a5,a5,a2
    201e:	97ba                	add	a5,a5,a4
    2020:	84aa                	mv	s1,a0
    2022:	b7ad                	j	1f8c <__addsf3+0x28e>
    2024:	d729                	beqz	a4,1f6e <__addsf3+0x270>
    2026:	842e                	mv	s0,a1
    2028:	87ba                	mv	a5,a4
    202a:	b5fd                	j	1f18 <__addsf3+0x21a>
    202c:	40f707b3          	sub	a5,a4,a5
    2030:	842e                	mv	s0,a1
    2032:	4485                	li	s1,1
    2034:	b379                	j	1dc2 <__addsf3+0xc4>
    2036:	87ba                	mv	a5,a4
    2038:	b5c5                	j	1f18 <__addsf3+0x21a>
    203a:	97ba                	add	a5,a5,a4
    203c:	040006b7          	lui	a3,0x4000
    2040:	8efd                	and	a3,a3,a5
    2042:	4601                	li	a2,0
    2044:	dec1                	beqz	a3,1fdc <__addsf3+0x2de>
    2046:	fc000737          	lui	a4,0xfc000
    204a:	177d                	addi	a4,a4,-1 # fbffffff <_eusrstack+0xdbffefff>
    204c:	8ff9                	and	a5,a5,a4
    204e:	4605                	li	a2,1
    2050:	838d                	srli	a5,a5,0x3
    2052:	b5e9                	j	1f1c <__addsf3+0x21e>
    2054:	87aa                	mv	a5,a0
    2056:	dd01                	beqz	a0,1f6e <__addsf3+0x270>
    2058:	838d                	srli	a5,a5,0x3
    205a:	b5c9                	j	1f1c <__addsf3+0x21e>

0000205c <__divsf3>:
    205c:	fdc10113          	addi	sp,sp,-36
    2060:	01755793          	srli	a5,a0,0x17
    2064:	cc26                	sw	s1,24(sp)
    2066:	00951693          	slli	a3,a0,0x9
    206a:	d006                	sw	ra,32(sp)
    206c:	ce22                	sw	s0,28(sp)
    206e:	0ff7f793          	zext.b	a5,a5
    2072:	84ae                	mv	s1,a1
    2074:	82a5                	srli	a3,a3,0x9
    2076:	01f55713          	srli	a4,a0,0x1f
    207a:	c3e1                	beqz	a5,213a <__divsf3+0xde>
    207c:	0ff00613          	li	a2,255
    2080:	0cc78263          	beq	a5,a2,2144 <__divsf3+0xe8>
    2084:	068e                	slli	a3,a3,0x3
    2086:	04000637          	lui	a2,0x4000
    208a:	8ed1                	or	a3,a3,a2
    208c:	f8178313          	addi	t1,a5,-127
    2090:	4401                	li	s0,0
    2092:	4281                	li	t0,0
    2094:	0174d793          	srli	a5,s1,0x17
    2098:	00949593          	slli	a1,s1,0x9
    209c:	0ff7f793          	zext.b	a5,a5
    20a0:	81a5                	srli	a1,a1,0x9
    20a2:	80fd                	srli	s1,s1,0x1f
    20a4:	cbb5                	beqz	a5,2118 <__divsf3+0xbc>
    20a6:	0ff00613          	li	a2,255
    20aa:	0ac78363          	beq	a5,a2,2150 <__divsf3+0xf4>
    20ae:	058e                	slli	a1,a1,0x3
    20b0:	04000637          	lui	a2,0x4000
    20b4:	8dd1                	or	a1,a1,a2
    20b6:	f8178793          	addi	a5,a5,-127
    20ba:	4501                	li	a0,0
    20bc:	43bd                	li	t2,15
    20be:	00974633          	xor	a2,a4,s1
    20c2:	40f30333          	sub	t1,t1,a5
    20c6:	1a83ee63          	bltu	t2,s0,2282 <__divsf3+0x226>
    20ca:	00001397          	auipc	t2,0x1
    20ce:	ef638393          	addi	t2,t2,-266 # 2fc0 <font+0x1e8>
    20d2:	040a                	slli	s0,s0,0x2
    20d4:	941e                	add	s0,s0,t2
    20d6:	401c                	lw	a5,0(s0)
    20d8:	979e                	add	a5,a5,t2
    20da:	8782                	jr	a5
    20dc:	0ff00793          	li	a5,255
    20e0:	4701                	li	a4,0
    20e2:	5082                	lw	ra,32(sp)
    20e4:	4472                	lw	s0,28(sp)
    20e6:	01779513          	slli	a0,a5,0x17
    20ea:	8d59                	or	a0,a0,a4
    20ec:	067e                	slli	a2,a2,0x1f
    20ee:	44e2                	lw	s1,24(sp)
    20f0:	8d51                	or	a0,a0,a2
    20f2:	02410113          	addi	sp,sp,36
    20f6:	8082                	ret
    20f8:	478d                	li	a5,3
    20fa:	00f28963          	beq	t0,a5,210c <__divsf3+0xb0>
    20fe:	4785                	li	a5,1
    2100:	0ef29d63          	bne	t0,a5,21fa <__divsf3+0x19e>
    2104:	862a                	mv	a2,a0
    2106:	4781                	li	a5,0
    2108:	4701                	li	a4,0
    210a:	bfe1                	j	20e2 <__divsf3+0x86>
    210c:	4601                	li	a2,0
    210e:	0ff00793          	li	a5,255
    2112:	00400737          	lui	a4,0x400
    2116:	b7f1                	j	20e2 <__divsf3+0x86>
    2118:	e9d9                	bnez	a1,21ae <__divsf3+0x152>
    211a:	00146413          	ori	s0,s0,1
    211e:	47b5                	li	a5,13
    2120:	00974633          	xor	a2,a4,s1
    2124:	fa87ece3          	bltu	a5,s0,20dc <__divsf3+0x80>
    2128:	00001597          	auipc	a1,0x1
    212c:	ed858593          	addi	a1,a1,-296 # 3000 <font+0x228>
    2130:	040a                	slli	s0,s0,0x2
    2132:	942e                	add	s0,s0,a1
    2134:	401c                	lw	a5,0(s0)
    2136:	97ae                	add	a5,a5,a1
    2138:	8782                	jr	a5
    213a:	eaa1                	bnez	a3,218a <__divsf3+0x12e>
    213c:	4411                	li	s0,4
    213e:	4301                	li	t1,0
    2140:	4285                	li	t0,1
    2142:	bf89                	j	2094 <__divsf3+0x38>
    2144:	ee95                	bnez	a3,2180 <__divsf3+0x124>
    2146:	4421                	li	s0,8
    2148:	0ff00313          	li	t1,255
    214c:	4289                	li	t0,2
    214e:	b799                	j	2094 <__divsf3+0x38>
    2150:	e195                	bnez	a1,2174 <__divsf3+0x118>
    2152:	00246413          	ori	s0,s0,2
    2156:	1475                	addi	s0,s0,-3
    2158:	45ad                	li	a1,11
    215a:	00974633          	xor	a2,a4,s1
    215e:	fa85e4e3          	bltu	a1,s0,2106 <__divsf3+0xaa>
    2162:	00001517          	auipc	a0,0x1
    2166:	ed650513          	addi	a0,a0,-298 # 3038 <font+0x260>
    216a:	040a                	slli	s0,s0,0x2
    216c:	942a                	add	s0,s0,a0
    216e:	400c                	lw	a1,0(s0)
    2170:	95aa                	add	a1,a1,a0
    2172:	8582                	jr	a1
    2174:	00346413          	ori	s0,s0,3
    2178:	0ff00793          	li	a5,255
    217c:	450d                	li	a0,3
    217e:	bf3d                	j	20bc <__divsf3+0x60>
    2180:	4431                	li	s0,12
    2182:	0ff00313          	li	t1,255
    2186:	428d                	li	t0,3
    2188:	b731                	j	2094 <__divsf3+0x38>
    218a:	8536                	mv	a0,a3
    218c:	c23a                	sw	a4,4(sp)
    218e:	c036                	sw	a3,0(sp)
    2190:	31b000ef          	jal	ra,2caa <__clzsi2>
    2194:	4682                	lw	a3,0(sp)
    2196:	ffb50793          	addi	a5,a0,-5
    219a:	4712                	lw	a4,4(sp)
    219c:	00f696b3          	sll	a3,a3,a5
    21a0:	f8a00793          	li	a5,-118
    21a4:	40a78333          	sub	t1,a5,a0
    21a8:	4401                	li	s0,0
    21aa:	4281                	li	t0,0
    21ac:	b5e5                	j	2094 <__divsf3+0x38>
    21ae:	852e                	mv	a0,a1
    21b0:	c81a                	sw	t1,16(sp)
    21b2:	c636                	sw	a3,12(sp)
    21b4:	c416                	sw	t0,8(sp)
    21b6:	c23a                	sw	a4,4(sp)
    21b8:	c02e                	sw	a1,0(sp)
    21ba:	2f1000ef          	jal	ra,2caa <__clzsi2>
    21be:	4582                	lw	a1,0(sp)
    21c0:	ffb50793          	addi	a5,a0,-5
    21c4:	4712                	lw	a4,4(sp)
    21c6:	00f595b3          	sll	a1,a1,a5
    21ca:	f8a00793          	li	a5,-118
    21ce:	8f89                	sub	a5,a5,a0
    21d0:	42a2                	lw	t0,8(sp)
    21d2:	46b2                	lw	a3,12(sp)
    21d4:	4342                	lw	t1,16(sp)
    21d6:	4501                	li	a0,0
    21d8:	b5d5                	j	20bc <__divsf3+0x60>
    21da:	f0130313          	addi	t1,t1,-255
    21de:	4789                	li	a5,2
    21e0:	853a                	mv	a0,a4
    21e2:	f0f29be3          	bne	t0,a5,20f8 <__divsf3+0x9c>
    21e6:	862a                	mv	a2,a0
    21e8:	0ff00793          	li	a5,255
    21ec:	4701                	li	a4,0
    21ee:	bdd5                	j	20e2 <__divsf3+0x86>
    21f0:	478d                	li	a5,3
    21f2:	f0f50de3          	beq	a0,a5,210c <__divsf3+0xb0>
    21f6:	8526                	mv	a0,s1
    21f8:	86ae                	mv	a3,a1
    21fa:	862a                	mv	a2,a0
    21fc:	07f30793          	addi	a5,t1,127
    2200:	02f05f63          	blez	a5,223e <__divsf3+0x1e2>
    2204:	0076f713          	andi	a4,a3,7
    2208:	c719                	beqz	a4,2216 <__divsf3+0x1ba>
    220a:	00f6f713          	andi	a4,a3,15
    220e:	4591                	li	a1,4
    2210:	00b70363          	beq	a4,a1,2216 <__divsf3+0x1ba>
    2214:	0691                	addi	a3,a3,4 # 4000004 <_data_lma+0x3ffce9c>
    2216:	08000737          	lui	a4,0x8000
    221a:	8f75                	and	a4,a4,a3
    221c:	c719                	beqz	a4,222a <__divsf3+0x1ce>
    221e:	f80007b7          	lui	a5,0xf8000
    2222:	17fd                	addi	a5,a5,-1 # f7ffffff <_eusrstack+0xd7ffefff>
    2224:	8efd                	and	a3,a3,a5
    2226:	08030793          	addi	a5,t1,128
    222a:	0fe00713          	li	a4,254
    222e:	eaf747e3          	blt	a4,a5,20dc <__divsf3+0x80>
    2232:	00669713          	slli	a4,a3,0x6
    2236:	8325                	srli	a4,a4,0x9
    2238:	0ff7f793          	zext.b	a5,a5
    223c:	b55d                	j	20e2 <__divsf3+0x86>
    223e:	4585                	li	a1,1
    2240:	c799                	beqz	a5,224e <__divsf3+0x1f2>
    2242:	8d9d                	sub	a1,a1,a5
    2244:	456d                	li	a0,27
    2246:	4781                	li	a5,0
    2248:	4701                	li	a4,0
    224a:	e8b54ce3          	blt	a0,a1,20e2 <__divsf3+0x86>
    224e:	09e30713          	addi	a4,t1,158
    2252:	00e69733          	sll	a4,a3,a4
    2256:	00e03733          	snez	a4,a4
    225a:	00b6d7b3          	srl	a5,a3,a1
    225e:	8fd9                	or	a5,a5,a4
    2260:	0077f713          	andi	a4,a5,7
    2264:	c719                	beqz	a4,2272 <__divsf3+0x216>
    2266:	00f7f713          	andi	a4,a5,15
    226a:	4691                	li	a3,4
    226c:	00d70363          	beq	a4,a3,2272 <__divsf3+0x216>
    2270:	0791                	addi	a5,a5,4
    2272:	04000737          	lui	a4,0x4000
    2276:	8f7d                	and	a4,a4,a5
    2278:	10070d63          	beqz	a4,2392 <__divsf3+0x336>
    227c:	4785                	li	a5,1
    227e:	4701                	li	a4,0
    2280:	b58d                	j	20e2 <__divsf3+0x86>
    2282:	67c1                	lui	a5,0x10
    2284:	00559493          	slli	s1,a1,0x5
    2288:	17fd                	addi	a5,a5,-1 # ffff <_data_lma+0xce97>
    228a:	0104d713          	srli	a4,s1,0x10
    228e:	8fe5                	and	a5,a5,s1
    2290:	c03a                	sw	a4,0(sp)
    2292:	c23e                	sw	a5,4(sp)
    2294:	0ab6fe63          	bgeu	a3,a1,2350 <__divsf3+0x2f4>
    2298:	8536                	mv	a0,a3
    229a:	85ba                	mv	a1,a4
    229c:	c832                	sw	a2,16(sp)
    229e:	c61a                	sw	t1,12(sp)
    22a0:	c436                	sw	a3,8(sp)
    22a2:	e23fd0ef          	jal	ra,c4 <__hidden___udivsi3>
    22a6:	4792                	lw	a5,4(sp)
    22a8:	46a2                	lw	a3,8(sp)
    22aa:	4332                	lw	t1,12(sp)
    22ac:	4642                	lw	a2,16(sp)
    22ae:	02f502b3          	mul	t0,a0,a5
    22b2:	842a                	mv	s0,a0
    22b4:	87b6                	mv	a5,a3
    22b6:	137d                	addi	t1,t1,-1
    22b8:	4681                	li	a3,0
    22ba:	4582                	lw	a1,0(sp)
    22bc:	853e                	mv	a0,a5
    22be:	ca32                	sw	a2,20(sp)
    22c0:	c836                	sw	a3,16(sp)
    22c2:	c616                	sw	t0,12(sp)
    22c4:	c41a                	sw	t1,8(sp)
    22c6:	e2bfd0ef          	jal	ra,f0 <__umodsi3>
    22ca:	46c2                	lw	a3,16(sp)
    22cc:	42b2                	lw	t0,12(sp)
    22ce:	01051793          	slli	a5,a0,0x10
    22d2:	8fd5                	or	a5,a5,a3
    22d4:	4322                	lw	t1,8(sp)
    22d6:	4652                	lw	a2,20(sp)
    22d8:	0057f863          	bgeu	a5,t0,22e8 <__divsf3+0x28c>
    22dc:	97a6                	add	a5,a5,s1
    22de:	fff40693          	addi	a3,s0,-1
    22e2:	0a97f363          	bgeu	a5,s1,2388 <__divsf3+0x32c>
    22e6:	8436                	mv	s0,a3
    22e8:	4582                	lw	a1,0(sp)
    22ea:	405787b3          	sub	a5,a5,t0
    22ee:	853e                	mv	a0,a5
    22f0:	ca32                	sw	a2,20(sp)
    22f2:	c81a                	sw	t1,16(sp)
    22f4:	c63e                	sw	a5,12(sp)
    22f6:	dcffd0ef          	jal	ra,c4 <__hidden___udivsi3>
    22fa:	4792                	lw	a5,4(sp)
    22fc:	4582                	lw	a1,0(sp)
    22fe:	c42a                	sw	a0,8(sp)
    2300:	02f503b3          	mul	t2,a0,a5
    2304:	47b2                	lw	a5,12(sp)
    2306:	853e                	mv	a0,a5
    2308:	c21e                	sw	t2,4(sp)
    230a:	de7fd0ef          	jal	ra,f0 <__umodsi3>
    230e:	4392                	lw	t2,4(sp)
    2310:	01051693          	slli	a3,a0,0x10
    2314:	42a2                	lw	t0,8(sp)
    2316:	4342                	lw	t1,16(sp)
    2318:	4652                	lw	a2,20(sp)
    231a:	0276f163          	bgeu	a3,t2,233c <__divsf3+0x2e0>
    231e:	009687b3          	add	a5,a3,s1
    2322:	00d7b5b3          	sltu	a1,a5,a3
    2326:	fff28513          	addi	a0,t0,-1
    232a:	86be                	mv	a3,a5
    232c:	e599                	bnez	a1,233a <__divsf3+0x2de>
    232e:	0077f663          	bgeu	a5,t2,233a <__divsf3+0x2de>
    2332:	12f9                	addi	t0,t0,-2
    2334:	009786b3          	add	a3,a5,s1
    2338:	a011                	j	233c <__divsf3+0x2e0>
    233a:	82aa                	mv	t0,a0
    233c:	01041713          	slli	a4,s0,0x10
    2340:	407686b3          	sub	a3,a3,t2
    2344:	00576733          	or	a4,a4,t0
    2348:	00d036b3          	snez	a3,a3
    234c:	8ed9                	or	a3,a3,a4
    234e:	b57d                	j	21fc <__divsf3+0x1a0>
    2350:	4582                	lw	a1,0(sp)
    2352:	0016d793          	srli	a5,a3,0x1
    2356:	853e                	mv	a0,a5
    2358:	ca32                	sw	a2,20(sp)
    235a:	c81a                	sw	t1,16(sp)
    235c:	c636                	sw	a3,12(sp)
    235e:	c43e                	sw	a5,8(sp)
    2360:	d65fd0ef          	jal	ra,c4 <__hidden___udivsi3>
    2364:	46b2                	lw	a3,12(sp)
    2366:	4792                	lw	a5,4(sp)
    2368:	4652                	lw	a2,20(sp)
    236a:	06fe                	slli	a3,a3,0x1f
    236c:	02f502b3          	mul	t0,a0,a5
    2370:	4342                	lw	t1,16(sp)
    2372:	47a2                	lw	a5,8(sp)
    2374:	842a                	mv	s0,a0
    2376:	82c1                	srli	a3,a3,0x10
    2378:	b789                	j	22ba <__divsf3+0x25e>
    237a:	8526                	mv	a0,s1
    237c:	862a                	mv	a2,a0
    237e:	b361                	j	2106 <__divsf3+0xaa>
    2380:	4601                	li	a2,0
    2382:	00400737          	lui	a4,0x400
    2386:	bbb1                	j	20e2 <__divsf3+0x86>
    2388:	f457ffe3          	bgeu	a5,t0,22e6 <__divsf3+0x28a>
    238c:	1479                	addi	s0,s0,-2
    238e:	97a6                	add	a5,a5,s1
    2390:	bfa1                	j	22e8 <__divsf3+0x28c>
    2392:	079a                	slli	a5,a5,0x6
    2394:	0097d713          	srli	a4,a5,0x9
    2398:	4781                	li	a5,0
    239a:	b3a1                	j	20e2 <__divsf3+0x86>
    239c:	8526                	mv	a0,s1
    239e:	b5a1                	j	21e6 <__divsf3+0x18a>

000023a0 <__lesf2>:
    23a0:	01755613          	srli	a2,a0,0x17
    23a4:	00800737          	lui	a4,0x800
    23a8:	177d                	addi	a4,a4,-1 # 7fffff <_data_lma+0x7fce97>
    23aa:	0175d693          	srli	a3,a1,0x17
    23ae:	0ff67613          	zext.b	a2,a2
    23b2:	0ff00313          	li	t1,255
    23b6:	00a772b3          	and	t0,a4,a0
    23ba:	01f55793          	srli	a5,a0,0x1f
    23be:	8f6d                	and	a4,a4,a1
    23c0:	0ff6f513          	zext.b	a0,a3
    23c4:	81fd                	srli	a1,a1,0x1f
    23c6:	02660663          	beq	a2,t1,23f2 <__lesf2+0x52>
    23ca:	00650a63          	beq	a0,t1,23de <__lesf2+0x3e>
    23ce:	ee05                	bnez	a2,2406 <__lesf2+0x66>
    23d0:	e911                	bnez	a0,23e4 <__lesf2+0x44>
    23d2:	cb29                	beqz	a4,2424 <__lesf2+0x84>
    23d4:	04029f63          	bnez	t0,2432 <__lesf2+0x92>
    23d8:	c9b9                	beqz	a1,242e <__lesf2+0x8e>
    23da:	852e                	mv	a0,a1
    23dc:	8082                	ret
    23de:	4509                	li	a0,2
    23e0:	eb01                	bnez	a4,23f0 <__lesf2+0x50>
    23e2:	e219                	bnez	a2,23e8 <__lesf2+0x48>
    23e4:	fe028ae3          	beqz	t0,23d8 <__lesf2+0x38>
    23e8:	02b78b63          	beq	a5,a1,241e <__lesf2+0x7e>
    23ec:	4505                	li	a0,1
    23ee:	e3a1                	bnez	a5,242e <__lesf2+0x8e>
    23f0:	8082                	ret
    23f2:	02029c63          	bnez	t0,242a <__lesf2+0x8a>
    23f6:	fec51be3          	bne	a0,a2,23ec <__lesf2+0x4c>
    23fa:	4509                	li	a0,2
    23fc:	fb75                	bnez	a4,23f0 <__lesf2+0x50>
    23fe:	feb797e3          	bne	a5,a1,23ec <__lesf2+0x4c>
    2402:	4501                	li	a0,0
    2404:	8082                	ret
    2406:	d17d                	beqz	a0,23ec <__lesf2+0x4c>
    2408:	feb792e3          	bne	a5,a1,23ec <__lesf2+0x4c>
    240c:	fec540e3          	blt	a0,a2,23ec <__lesf2+0x4c>
    2410:	00a64763          	blt	a2,a0,241e <__lesf2+0x7e>
    2414:	fc576ce3          	bltu	a4,t0,23ec <__lesf2+0x4c>
    2418:	4501                	li	a0,0
    241a:	fce2fbe3          	bgeu	t0,a4,23f0 <__lesf2+0x50>
    241e:	cb81                	beqz	a5,242e <__lesf2+0x8e>
    2420:	853e                	mv	a0,a5
    2422:	8082                	ret
    2424:	fc0294e3          	bnez	t0,23ec <__lesf2+0x4c>
    2428:	8082                	ret
    242a:	4509                	li	a0,2
    242c:	8082                	ret
    242e:	557d                	li	a0,-1
    2430:	8082                	ret
    2432:	feb781e3          	beq	a5,a1,2414 <__lesf2+0x74>
    2436:	bf5d                	j	23ec <__lesf2+0x4c>

00002438 <__mulsf3>:
    2438:	1101                	addi	sp,sp,-32
    243a:	ca26                	sw	s1,20(sp)
    243c:	01755493          	srli	s1,a0,0x17
    2440:	00951613          	slli	a2,a0,0x9
    2444:	ce06                	sw	ra,28(sp)
    2446:	cc22                	sw	s0,24(sp)
    2448:	0ff4f493          	zext.b	s1,s1
    244c:	8225                	srli	a2,a2,0x9
    244e:	01f55693          	srli	a3,a0,0x1f
    2452:	10048763          	beqz	s1,2560 <__mulsf3+0x128>
    2456:	0ff00793          	li	a5,255
    245a:	10f48863          	beq	s1,a5,256a <__mulsf3+0x132>
    245e:	060e                	slli	a2,a2,0x3
    2460:	040007b7          	lui	a5,0x4000
    2464:	8e5d                	or	a2,a2,a5
    2466:	f8148493          	addi	s1,s1,-127
    246a:	4701                	li	a4,0
    246c:	4281                	li	t0,0
    246e:	0175d793          	srli	a5,a1,0x17
    2472:	00959413          	slli	s0,a1,0x9
    2476:	0ff7f793          	zext.b	a5,a5
    247a:	8025                	srli	s0,s0,0x9
    247c:	81fd                	srli	a1,a1,0x1f
    247e:	c7e9                	beqz	a5,2548 <__mulsf3+0x110>
    2480:	0ff00513          	li	a0,255
    2484:	04a78f63          	beq	a5,a0,24e2 <__mulsf3+0xaa>
    2488:	f8178793          	addi	a5,a5,-127 # 3ffff81 <_data_lma+0x3ffce19>
    248c:	04000537          	lui	a0,0x4000
    2490:	040e                	slli	s0,s0,0x3
    2492:	8c49                	or	s0,s0,a0
    2494:	00978533          	add	a0,a5,s1
    2498:	00150493          	addi	s1,a0,1 # 4000001 <_data_lma+0x3ffce99>
    249c:	4329                	li	t1,10
    249e:	c026                	sw	s1,0(sp)
    24a0:	4781                	li	a5,0
    24a2:	0ee34c63          	blt	t1,a4,259a <__mulsf3+0x162>
    24a6:	00b6c333          	xor	t1,a3,a1
    24aa:	4689                	li	a3,2
    24ac:	839a                	mv	t2,t1
    24ae:	04e6c963          	blt	a3,a4,2500 <__mulsf3+0xc8>
    24b2:	177d                	addi	a4,a4,-1
    24b4:	4585                	li	a1,1
    24b6:	14e5e763          	bltu	a1,a4,2604 <__mulsf3+0x1cc>
    24ba:	0ad78e63          	beq	a5,a3,2576 <__mulsf3+0x13e>
    24be:	4705                	li	a4,1
    24c0:	831e                	mv	t1,t2
    24c2:	06e79163          	bne	a5,a4,2524 <__mulsf3+0xec>
    24c6:	4781                	li	a5,0
    24c8:	4381                	li	t2,0
    24ca:	40f2                	lw	ra,28(sp)
    24cc:	4462                	lw	s0,24(sp)
    24ce:	01779513          	slli	a0,a5,0x17
    24d2:	00756533          	or	a0,a0,t2
    24d6:	037e                	slli	t1,t1,0x1f
    24d8:	44d2                	lw	s1,20(sp)
    24da:	00656533          	or	a0,a0,t1
    24de:	6105                	addi	sp,sp,32
    24e0:	8082                	ret
    24e2:	0ff48513          	addi	a0,s1,255
    24e6:	cc49                	beqz	s0,2580 <__mulsf3+0x148>
    24e8:	10048493          	addi	s1,s1,256
    24ec:	00b6c333          	xor	t1,a3,a1
    24f0:	c026                	sw	s1,0(sp)
    24f2:	00376713          	ori	a4,a4,3
    24f6:	44a9                	li	s1,10
    24f8:	839a                	mv	t2,t1
    24fa:	20e4c463          	blt	s1,a4,2702 <__mulsf3+0x2ca>
    24fe:	478d                	li	a5,3
    2500:	4685                	li	a3,1
    2502:	00e69733          	sll	a4,a3,a4
    2506:	53077693          	andi	a3,a4,1328
    250a:	ce99                	beqz	a3,2528 <__mulsf3+0xf0>
    250c:	4789                	li	a5,2
    250e:	06f28463          	beq	t0,a5,2576 <__mulsf3+0x13e>
    2512:	478d                	li	a5,3
    2514:	02f28463          	beq	t0,a5,253c <__mulsf3+0x104>
    2518:	8796                	mv	a5,t0
    251a:	4705                	li	a4,1
    251c:	8432                	mv	s0,a2
    251e:	831e                	mv	t1,t2
    2520:	fae783e3          	beq	a5,a4,24c6 <__mulsf3+0x8e>
    2524:	4502                	lw	a0,0(sp)
    2526:	a291                	j	266a <__mulsf3+0x232>
    2528:	24077693          	andi	a3,a4,576
    252c:	ea81                	bnez	a3,253c <__mulsf3+0x104>
    252e:	08877713          	andi	a4,a4,136
    2532:	cb69                	beqz	a4,2604 <__mulsf3+0x1cc>
    2534:	83ae                	mv	t2,a1
    2536:	8622                	mv	a2,s0
    2538:	82be                	mv	t0,a5
    253a:	bfc9                	j	250c <__mulsf3+0xd4>
    253c:	4301                	li	t1,0
    253e:	0ff00793          	li	a5,255
    2542:	004003b7          	lui	t2,0x400
    2546:	b751                	j	24ca <__mulsf3+0x92>
    2548:	e051                	bnez	s0,25cc <__mulsf3+0x194>
    254a:	8526                	mv	a0,s1
    254c:	00150493          	addi	s1,a0,1
    2550:	00176713          	ori	a4,a4,1
    2554:	4329                	li	t1,10
    2556:	c026                	sw	s1,0(sp)
    2558:	4785                	li	a5,1
    255a:	f4e356e3          	bge	t1,a4,24a6 <__mulsf3+0x6e>
    255e:	a835                	j	259a <__mulsf3+0x162>
    2560:	e621                	bnez	a2,25a8 <__mulsf3+0x170>
    2562:	4711                	li	a4,4
    2564:	4481                	li	s1,0
    2566:	4285                	li	t0,1
    2568:	b719                	j	246e <__mulsf3+0x36>
    256a:	ea15                	bnez	a2,259e <__mulsf3+0x166>
    256c:	4721                	li	a4,8
    256e:	0ff00493          	li	s1,255
    2572:	4289                	li	t0,2
    2574:	bded                	j	246e <__mulsf3+0x36>
    2576:	831e                	mv	t1,t2
    2578:	0ff00793          	li	a5,255
    257c:	4381                	li	t2,0
    257e:	b7b1                	j	24ca <__mulsf3+0x92>
    2580:	10048793          	addi	a5,s1,256
    2584:	c03e                	sw	a5,0(sp)
    2586:	00276713          	ori	a4,a4,2
    258a:	4329                	li	t1,10
    258c:	43b9                	li	t2,14
    258e:	4789                	li	a5,2
    2590:	f0e35be3          	bge	t1,a4,24a6 <__mulsf3+0x6e>
    2594:	472d                	li	a4,11
    2596:	f8e38fe3          	beq	t2,a4,2534 <__mulsf3+0xfc>
    259a:	83b6                	mv	t2,a3
    259c:	bf85                	j	250c <__mulsf3+0xd4>
    259e:	4731                	li	a4,12
    25a0:	0ff00493          	li	s1,255
    25a4:	428d                	li	t0,3
    25a6:	b5e1                	j	246e <__mulsf3+0x36>
    25a8:	8532                	mv	a0,a2
    25aa:	c42e                	sw	a1,8(sp)
    25ac:	c236                	sw	a3,4(sp)
    25ae:	c032                	sw	a2,0(sp)
    25b0:	2ded                	jal	2caa <__clzsi2>
    25b2:	4602                	lw	a2,0(sp)
    25b4:	ffb50793          	addi	a5,a0,-5
    25b8:	f8a00493          	li	s1,-118
    25bc:	4692                	lw	a3,4(sp)
    25be:	45a2                	lw	a1,8(sp)
    25c0:	00f61633          	sll	a2,a2,a5
    25c4:	8c89                	sub	s1,s1,a0
    25c6:	4701                	li	a4,0
    25c8:	4281                	li	t0,0
    25ca:	b555                	j	246e <__mulsf3+0x36>
    25cc:	8522                	mv	a0,s0
    25ce:	c832                	sw	a2,16(sp)
    25d0:	c616                	sw	t0,12(sp)
    25d2:	c43a                	sw	a4,8(sp)
    25d4:	c22e                	sw	a1,4(sp)
    25d6:	c036                	sw	a3,0(sp)
    25d8:	2dc9                	jal	2caa <__clzsi2>
    25da:	ffb50793          	addi	a5,a0,-5
    25de:	40a48533          	sub	a0,s1,a0
    25e2:	f8a50513          	addi	a0,a0,-118
    25e6:	4722                	lw	a4,8(sp)
    25e8:	00150493          	addi	s1,a0,1
    25ec:	4682                	lw	a3,0(sp)
    25ee:	4329                	li	t1,10
    25f0:	c026                	sw	s1,0(sp)
    25f2:	00f41433          	sll	s0,s0,a5
    25f6:	4592                	lw	a1,4(sp)
    25f8:	42b2                	lw	t0,12(sp)
    25fa:	4642                	lw	a2,16(sp)
    25fc:	4781                	li	a5,0
    25fe:	eae354e3          	bge	t1,a4,24a6 <__mulsf3+0x6e>
    2602:	bf61                	j	259a <__mulsf3+0x162>
    2604:	63c1                	lui	t2,0x10
    2606:	fff38713          	addi	a4,t2,-1 # ffff <_data_lma+0xce97>
    260a:	01065693          	srli	a3,a2,0x10
    260e:	01045293          	srli	t0,s0,0x10
    2612:	8e79                	and	a2,a2,a4
    2614:	8f61                	and	a4,a4,s0
    2616:	02c705b3          	mul	a1,a4,a2
    261a:	02e68733          	mul	a4,a3,a4
    261e:	0105d793          	srli	a5,a1,0x10
    2622:	02c28633          	mul	a2,t0,a2
    2626:	963a                	add	a2,a2,a4
    2628:	97b2                	add	a5,a5,a2
    262a:	025686b3          	mul	a3,a3,t0
    262e:	00e7f363          	bgeu	a5,a4,2634 <__mulsf3+0x1fc>
    2632:	969e                	add	a3,a3,t2
    2634:	6641                	lui	a2,0x10
    2636:	167d                	addi	a2,a2,-1 # ffff <_data_lma+0xce97>
    2638:	00c7f733          	and	a4,a5,a2
    263c:	8df1                	and	a1,a1,a2
    263e:	0742                	slli	a4,a4,0x10
    2640:	972e                	add	a4,a4,a1
    2642:	00671613          	slli	a2,a4,0x6
    2646:	0107d413          	srli	s0,a5,0x10
    264a:	8369                	srli	a4,a4,0x1a
    264c:	00c037b3          	snez	a5,a2
    2650:	9436                	add	s0,s0,a3
    2652:	8fd9                	or	a5,a5,a4
    2654:	041a                	slli	s0,s0,0x6
    2656:	8c5d                	or	s0,s0,a5
    2658:	080007b7          	lui	a5,0x8000
    265c:	8fe1                	and	a5,a5,s0
    265e:	c791                	beqz	a5,266a <__mulsf3+0x232>
    2660:	4502                	lw	a0,0(sp)
    2662:	00145793          	srli	a5,s0,0x1
    2666:	8805                	andi	s0,s0,1
    2668:	8c5d                	or	s0,s0,a5
    266a:	07f50793          	addi	a5,a0,127
    266e:	04f05063          	blez	a5,26ae <__mulsf3+0x276>
    2672:	00747713          	andi	a4,s0,7
    2676:	c719                	beqz	a4,2684 <__mulsf3+0x24c>
    2678:	00f47713          	andi	a4,s0,15
    267c:	4691                	li	a3,4
    267e:	00d70363          	beq	a4,a3,2684 <__mulsf3+0x24c>
    2682:	0411                	addi	s0,s0,4
    2684:	08000737          	lui	a4,0x8000
    2688:	8f61                	and	a4,a4,s0
    268a:	c719                	beqz	a4,2698 <__mulsf3+0x260>
    268c:	f80007b7          	lui	a5,0xf8000
    2690:	17fd                	addi	a5,a5,-1 # f7ffffff <_eusrstack+0xd7ffefff>
    2692:	8c7d                	and	s0,s0,a5
    2694:	08050793          	addi	a5,a0,128
    2698:	0fe00713          	li	a4,254
    269c:	04f74a63          	blt	a4,a5,26f0 <__mulsf3+0x2b8>
    26a0:	00641393          	slli	t2,s0,0x6
    26a4:	0093d393          	srli	t2,t2,0x9
    26a8:	0ff7f793          	zext.b	a5,a5
    26ac:	bd39                	j	24ca <__mulsf3+0x92>
    26ae:	4705                	li	a4,1
    26b0:	c799                	beqz	a5,26be <__mulsf3+0x286>
    26b2:	8f1d                	sub	a4,a4,a5
    26b4:	46ed                	li	a3,27
    26b6:	4781                	li	a5,0
    26b8:	4381                	li	t2,0
    26ba:	e0e6c8e3          	blt	a3,a4,24ca <__mulsf3+0x92>
    26be:	09e50513          	addi	a0,a0,158
    26c2:	00a41533          	sll	a0,s0,a0
    26c6:	00e457b3          	srl	a5,s0,a4
    26ca:	00a03733          	snez	a4,a0
    26ce:	8fd9                	or	a5,a5,a4
    26d0:	0077f713          	andi	a4,a5,7
    26d4:	c719                	beqz	a4,26e2 <__mulsf3+0x2aa>
    26d6:	00f7f713          	andi	a4,a5,15
    26da:	4691                	li	a3,4
    26dc:	00d70363          	beq	a4,a3,26e2 <__mulsf3+0x2aa>
    26e0:	0791                	addi	a5,a5,4
    26e2:	04000737          	lui	a4,0x4000
    26e6:	8f7d                	and	a4,a4,a5
    26e8:	cb01                	beqz	a4,26f8 <__mulsf3+0x2c0>
    26ea:	4785                	li	a5,1
    26ec:	4381                	li	t2,0
    26ee:	bbf1                	j	24ca <__mulsf3+0x92>
    26f0:	0ff00793          	li	a5,255
    26f4:	4381                	li	t2,0
    26f6:	bbd1                	j	24ca <__mulsf3+0x92>
    26f8:	079a                	slli	a5,a5,0x6
    26fa:	0097d393          	srli	t2,a5,0x9
    26fe:	4781                	li	a5,0
    2700:	b3e9                	j	24ca <__mulsf3+0x92>
    2702:	453d                	li	a0,15
    2704:	4301                	li	t1,0
    2706:	004003b7          	lui	t2,0x400
    270a:	dca700e3          	beq	a4,a0,24ca <__mulsf3+0x92>
    270e:	43ad                	li	t2,11
    2710:	478d                	li	a5,3
    2712:	b549                	j	2594 <__mulsf3+0x15c>

00002714 <__subsf3>:
    2714:	00800737          	lui	a4,0x800
    2718:	1141                	addi	sp,sp,-16
    271a:	0175d693          	srli	a3,a1,0x17
    271e:	177d                	addi	a4,a4,-1 # 7fffff <_data_lma+0x7fce97>
    2720:	00a777b3          	and	a5,a4,a0
    2724:	c422                	sw	s0,8(sp)
    2726:	8f6d                	and	a4,a4,a1
    2728:	01f55413          	srli	s0,a0,0x1f
    272c:	c226                	sw	s1,4(sp)
    272e:	c606                	sw	ra,12(sp)
    2730:	01755493          	srli	s1,a0,0x17
    2734:	0ff00313          	li	t1,255
    2738:	0ff6f513          	zext.b	a0,a3
    273c:	0ff4f493          	zext.b	s1,s1
    2740:	86a2                	mv	a3,s0
    2742:	078e                	slli	a5,a5,0x3
    2744:	81fd                	srli	a1,a1,0x1f
    2746:	00371613          	slli	a2,a4,0x3
    274a:	04650363          	beq	a0,t1,2790 <__subsf3+0x7c>
    274e:	0015c593          	xori	a1,a1,1
    2752:	40a48733          	sub	a4,s1,a0
    2756:	00b40f63          	beq	s0,a1,2774 <__subsf3+0x60>
    275a:	30e05663          	blez	a4,2a66 <__subsf3+0x352>
    275e:	e135                	bnez	a0,27c2 <__subsf3+0xae>
    2760:	14060c63          	beqz	a2,28b8 <__subsf3+0x1a4>
    2764:	fff70693          	addi	a3,a4,-1
    2768:	28068e63          	beqz	a3,2a04 <__subsf3+0x2f0>
    276c:	02670f63          	beq	a4,t1,27aa <__subsf3+0x96>
    2770:	8736                	mv	a4,a3
    2772:	a8a9                	j	27cc <__subsf3+0xb8>
    2774:	30e05563          	blez	a4,2a7e <__subsf3+0x36a>
    2778:	c96d                	beqz	a0,286a <__subsf3+0x156>
    277a:	02648863          	beq	s1,t1,27aa <__subsf3+0x96>
    277e:	040005b7          	lui	a1,0x4000
    2782:	8e4d                	or	a2,a2,a1
    2784:	45ed                	li	a1,27
    2786:	12e5df63          	bge	a1,a4,28c4 <__subsf3+0x1b0>
    278a:	0785                	addi	a5,a5,1
    278c:	8726                	mv	a4,s1
    278e:	a88d                	j	2800 <__subsf3+0xec>
    2790:	f0148713          	addi	a4,s1,-255
    2794:	e645                	bnez	a2,283c <__subsf3+0x128>
    2796:	0015c593          	xori	a1,a1,1
    279a:	0eb40163          	beq	s0,a1,287c <__subsf3+0x168>
    279e:	18070a63          	beqz	a4,2932 <__subsf3+0x21e>
    27a2:	10048663          	beqz	s1,28ae <__subsf3+0x19a>
    27a6:	842e                	mv	s0,a1
    27a8:	87b2                	mv	a5,a2
    27aa:	838d                	srli	a5,a5,0x3
    27ac:	00147693          	andi	a3,s0,1
    27b0:	0ff00513          	li	a0,255
    27b4:	cbbd                	beqz	a5,282a <__subsf3+0x116>
    27b6:	4681                	li	a3,0
    27b8:	0ff00513          	li	a0,255
    27bc:	004007b7          	lui	a5,0x400
    27c0:	a0ad                	j	282a <__subsf3+0x116>
    27c2:	fe6484e3          	beq	s1,t1,27aa <__subsf3+0x96>
    27c6:	040006b7          	lui	a3,0x4000
    27ca:	8e55                	or	a2,a2,a3
    27cc:	45ed                	li	a1,27
    27ce:	4685                	li	a3,1
    27d0:	00e5cd63          	blt	a1,a4,27ea <__subsf3+0xd6>
    27d4:	02000693          	li	a3,32
    27d8:	8e99                	sub	a3,a3,a4
    27da:	00d616b3          	sll	a3,a2,a3
    27de:	00e65633          	srl	a2,a2,a4
    27e2:	00d03733          	snez	a4,a3
    27e6:	00e666b3          	or	a3,a2,a4
    27ea:	8f95                	sub	a5,a5,a3
    27ec:	04000737          	lui	a4,0x4000
    27f0:	00e7f6b3          	and	a3,a5,a4
    27f4:	10069163          	bnez	a3,28f6 <__subsf3+0x1e2>
    27f8:	0077f693          	andi	a3,a5,7
    27fc:	8726                	mv	a4,s1
    27fe:	cecd                	beqz	a3,28b8 <__subsf3+0x1a4>
    2800:	00f7f693          	andi	a3,a5,15
    2804:	4611                	li	a2,4
    2806:	00c68363          	beq	a3,a2,280c <__subsf3+0xf8>
    280a:	0791                	addi	a5,a5,4 # 400004 <_data_lma+0x3fce9c>
    280c:	040006b7          	lui	a3,0x4000
    2810:	8efd                	and	a3,a3,a5
    2812:	c2dd                	beqz	a3,28b8 <__subsf3+0x1a4>
    2814:	0705                	addi	a4,a4,1 # 4000001 <_data_lma+0x3ffce99>
    2816:	0ff00613          	li	a2,255
    281a:	00147693          	andi	a3,s0,1
    281e:	0cc70863          	beq	a4,a2,28ee <__subsf3+0x1da>
    2822:	079a                	slli	a5,a5,0x6
    2824:	0ff77513          	zext.b	a0,a4
    2828:	83a5                	srli	a5,a5,0x9
    282a:	40b2                	lw	ra,12(sp)
    282c:	4422                	lw	s0,8(sp)
    282e:	055e                	slli	a0,a0,0x17
    2830:	8d5d                	or	a0,a0,a5
    2832:	06fe                	slli	a3,a3,0x1f
    2834:	4492                	lw	s1,4(sp)
    2836:	8d55                	or	a0,a0,a3
    2838:	0141                	addi	sp,sp,16
    283a:	8082                	ret
    283c:	f6b411e3          	bne	s0,a1,279e <__subsf3+0x8a>
    2840:	c331                	beqz	a4,2884 <__subsf3+0x170>
    2842:	1a049f63          	bnez	s1,2a00 <__subsf3+0x2ec>
    2846:	0ff00713          	li	a4,255
    284a:	c7b5                	beqz	a5,28b6 <__subsf3+0x1a2>
    284c:	fff70593          	addi	a1,a4,-1
    2850:	12058763          	beqz	a1,297e <__subsf3+0x26a>
    2854:	0ff00313          	li	t1,255
    2858:	1a670463          	beq	a4,t1,2a00 <__subsf3+0x2ec>
    285c:	476d                	li	a4,27
    285e:	1ab75963          	bge	a4,a1,2a10 <__subsf3+0x2fc>
    2862:	00160793          	addi	a5,a2,1
    2866:	872a                	mv	a4,a0
    2868:	bf61                	j	2800 <__subsf3+0xec>
    286a:	c639                	beqz	a2,28b8 <__subsf3+0x1a4>
    286c:	fff70593          	addi	a1,a4,-1
    2870:	10058763          	beqz	a1,297e <__subsf3+0x26a>
    2874:	f2670be3          	beq	a4,t1,27aa <__subsf3+0x96>
    2878:	872e                	mv	a4,a1
    287a:	b729                	j	2784 <__subsf3+0x70>
    287c:	c701                	beqz	a4,2884 <__subsf3+0x170>
    287e:	d4e1                	beqz	s1,2846 <__subsf3+0x132>
    2880:	4781                	li	a5,0
    2882:	b725                	j	27aa <__subsf3+0x96>
    2884:	00148713          	addi	a4,s1,1
    2888:	0fe77593          	andi	a1,a4,254
    288c:	14059463          	bnez	a1,29d4 <__subsf3+0x2c0>
    2890:	16049763          	bnez	s1,29fe <__subsf3+0x2ea>
    2894:	1a078563          	beqz	a5,2a3e <__subsf3+0x32a>
    2898:	1a061563          	bnez	a2,2a42 <__subsf3+0x32e>
    289c:	838d                	srli	a5,a5,0x3
    289e:	4701                	li	a4,0
    28a0:	07a6                	slli	a5,a5,0x9
    28a2:	83a5                	srli	a5,a5,0x9
    28a4:	0ff77513          	zext.b	a0,a4
    28a8:	00147693          	andi	a3,s0,1
    28ac:	bfbd                	j	282a <__subsf3+0x116>
    28ae:	0ff00713          	li	a4,255
    28b2:	e7fd                	bnez	a5,29a0 <__subsf3+0x28c>
    28b4:	842e                	mv	s0,a1
    28b6:	87b2                	mv	a5,a2
    28b8:	0ff00693          	li	a3,255
    28bc:	838d                	srli	a5,a5,0x3
    28be:	eed707e3          	beq	a4,a3,27ac <__subsf3+0x98>
    28c2:	bff9                	j	28a0 <__subsf3+0x18c>
    28c4:	02000593          	li	a1,32
    28c8:	8d99                	sub	a1,a1,a4
    28ca:	00b615b3          	sll	a1,a2,a1
    28ce:	00b035b3          	snez	a1,a1
    28d2:	00e65633          	srl	a2,a2,a4
    28d6:	8e4d                	or	a2,a2,a1
    28d8:	97b2                	add	a5,a5,a2
    28da:	04000737          	lui	a4,0x4000
    28de:	8f7d                	and	a4,a4,a5
    28e0:	df01                	beqz	a4,27f8 <__subsf3+0xe4>
    28e2:	00148713          	addi	a4,s1,1
    28e6:	0ff00613          	li	a2,255
    28ea:	0ac71263          	bne	a4,a2,298e <__subsf3+0x27a>
    28ee:	0ff00513          	li	a0,255
    28f2:	4781                	li	a5,0
    28f4:	bf1d                	j	282a <__subsf3+0x116>
    28f6:	177d                	addi	a4,a4,-1 # 3ffffff <_data_lma+0x3ffce97>
    28f8:	8f7d                	and	a4,a4,a5
    28fa:	853a                	mv	a0,a4
    28fc:	c03a                	sw	a4,0(sp)
    28fe:	2675                	jal	2caa <__clzsi2>
    2900:	4702                	lw	a4,0(sp)
    2902:	156d                	addi	a0,a0,-5
    2904:	00a716b3          	sll	a3,a4,a0
    2908:	04954963          	blt	a0,s1,295a <__subsf3+0x246>
    290c:	8d05                	sub	a0,a0,s1
    290e:	00150793          	addi	a5,a0,1
    2912:	02000713          	li	a4,32
    2916:	8f1d                	sub	a4,a4,a5
    2918:	00e69733          	sll	a4,a3,a4
    291c:	00e03733          	snez	a4,a4
    2920:	00f6d7b3          	srl	a5,a3,a5
    2924:	8fd9                	or	a5,a5,a4
    2926:	4701                	li	a4,0
    2928:	0077f693          	andi	a3,a5,7
    292c:	ec069ae3          	bnez	a3,2800 <__subsf3+0xec>
    2930:	bdf1                	j	280c <__subsf3+0xf8>
    2932:	00148713          	addi	a4,s1,1
    2936:	0fe77713          	andi	a4,a4,254
    293a:	e71d                	bnez	a4,2968 <__subsf3+0x254>
    293c:	e8cd                	bnez	s1,29ee <__subsf3+0x2da>
    293e:	cfe5                	beqz	a5,2a36 <__subsf3+0x322>
    2940:	de31                	beqz	a2,289c <__subsf3+0x188>
    2942:	40c78733          	sub	a4,a5,a2
    2946:	040006b7          	lui	a3,0x4000
    294a:	8ef9                	and	a3,a3,a4
    294c:	10068863          	beqz	a3,2a5c <__subsf3+0x348>
    2950:	40f607b3          	sub	a5,a2,a5
    2954:	4701                	li	a4,0
    2956:	842e                	mv	s0,a1
    2958:	bfc1                	j	2928 <__subsf3+0x214>
    295a:	fc0007b7          	lui	a5,0xfc000
    295e:	17fd                	addi	a5,a5,-1 # fbffffff <_eusrstack+0xdbffefff>
    2960:	40a48733          	sub	a4,s1,a0
    2964:	8ff5                	and	a5,a5,a3
    2966:	b7c9                	j	2928 <__subsf3+0x214>
    2968:	40c78733          	sub	a4,a5,a2
    296c:	040006b7          	lui	a3,0x4000
    2970:	8ef9                	and	a3,a3,a4
    2972:	e2d1                	bnez	a3,29f6 <__subsf3+0x2e2>
    2974:	f359                	bnez	a4,28fa <__subsf3+0x1e6>
    2976:	4681                	li	a3,0
    2978:	4501                	li	a0,0
    297a:	4781                	li	a5,0
    297c:	b57d                	j	282a <__subsf3+0x116>
    297e:	97b2                	add	a5,a5,a2
    2980:	040006b7          	lui	a3,0x4000
    2984:	8efd                	and	a3,a3,a5
    2986:	4709                	li	a4,2
    2988:	4485                	li	s1,1
    298a:	e60687e3          	beqz	a3,27f8 <__subsf3+0xe4>
    298e:	7e000637          	lui	a2,0x7e000
    2992:	0017d693          	srli	a3,a5,0x1
    2996:	167d                	addi	a2,a2,-1 # 7dffffff <_eusrstack+0x5dffefff>
    2998:	8b85                	andi	a5,a5,1
    299a:	8ef1                	and	a3,a3,a2
    299c:	8fd5                	or	a5,a5,a3
    299e:	b769                	j	2928 <__subsf3+0x214>
    29a0:	fff70693          	addi	a3,a4,-1
    29a4:	c6c1                	beqz	a3,2a2c <__subsf3+0x318>
    29a6:	0ff00313          	li	t1,255
    29aa:	842e                	mv	s0,a1
    29ac:	04670a63          	beq	a4,t1,2a00 <__subsf3+0x2ec>
    29b0:	45ed                	li	a1,27
    29b2:	4705                	li	a4,1
    29b4:	00d5cc63          	blt	a1,a3,29cc <__subsf3+0x2b8>
    29b8:	02000713          	li	a4,32
    29bc:	8f15                	sub	a4,a4,a3
    29be:	00e79733          	sll	a4,a5,a4
    29c2:	00d7d6b3          	srl	a3,a5,a3
    29c6:	00e03733          	snez	a4,a4
    29ca:	8f55                	or	a4,a4,a3
    29cc:	40e607b3          	sub	a5,a2,a4
    29d0:	84aa                	mv	s1,a0
    29d2:	bd29                	j	27ec <__subsf3+0xd8>
    29d4:	0ff00593          	li	a1,255
    29d8:	f0b70be3          	beq	a4,a1,28ee <__subsf3+0x1da>
    29dc:	963e                	add	a2,a2,a5
    29de:	00165793          	srli	a5,a2,0x1
    29e2:	0077f693          	andi	a3,a5,7
    29e6:	e0069de3          	bnez	a3,2800 <__subsf3+0xec>
    29ea:	838d                	srli	a5,a5,0x3
    29ec:	bd55                	j	28a0 <__subsf3+0x18c>
    29ee:	ef91                	bnez	a5,2a0a <__subsf3+0x2f6>
    29f0:	dc0603e3          	beqz	a2,27b6 <__subsf3+0xa2>
    29f4:	bb4d                	j	27a6 <__subsf3+0x92>
    29f6:	40f60733          	sub	a4,a2,a5
    29fa:	842e                	mv	s0,a1
    29fc:	bdfd                	j	28fa <__subsf3+0x1e6>
    29fe:	e791                	bnez	a5,2a0a <__subsf3+0x2f6>
    2a00:	87b2                	mv	a5,a2
    2a02:	b365                	j	27aa <__subsf3+0x96>
    2a04:	8f91                	sub	a5,a5,a2
    2a06:	4485                	li	s1,1
    2a08:	b3d5                	j	27ec <__subsf3+0xd8>
    2a0a:	da0600e3          	beqz	a2,27aa <__subsf3+0x96>
    2a0e:	b365                	j	27b6 <__subsf3+0xa2>
    2a10:	02000713          	li	a4,32
    2a14:	8f0d                	sub	a4,a4,a1
    2a16:	00e79733          	sll	a4,a5,a4
    2a1a:	00b7d5b3          	srl	a1,a5,a1
    2a1e:	00e037b3          	snez	a5,a4
    2a22:	8ddd                	or	a1,a1,a5
    2a24:	00c587b3          	add	a5,a1,a2
    2a28:	84aa                	mv	s1,a0
    2a2a:	bd45                	j	28da <__subsf3+0x1c6>
    2a2c:	40f607b3          	sub	a5,a2,a5
    2a30:	842e                	mv	s0,a1
    2a32:	4485                	li	s1,1
    2a34:	bb65                	j	27ec <__subsf3+0xd8>
    2a36:	d221                	beqz	a2,2976 <__subsf3+0x262>
    2a38:	842e                	mv	s0,a1
    2a3a:	87b2                	mv	a5,a2
    2a3c:	b585                	j	289c <__subsf3+0x188>
    2a3e:	87b2                	mv	a5,a2
    2a40:	bdb1                	j	289c <__subsf3+0x188>
    2a42:	97b2                	add	a5,a5,a2
    2a44:	040006b7          	lui	a3,0x4000
    2a48:	8efd                	and	a3,a3,a5
    2a4a:	4701                	li	a4,0
    2a4c:	ded9                	beqz	a3,29ea <__subsf3+0x2d6>
    2a4e:	fc000737          	lui	a4,0xfc000
    2a52:	177d                	addi	a4,a4,-1 # fbffffff <_eusrstack+0xdbffefff>
    2a54:	8ff9                	and	a5,a5,a4
    2a56:	838d                	srli	a5,a5,0x3
    2a58:	4705                	li	a4,1
    2a5a:	b599                	j	28a0 <__subsf3+0x18c>
    2a5c:	df09                	beqz	a4,2976 <__subsf3+0x262>
    2a5e:	87ba                	mv	a5,a4
    2a60:	838d                	srli	a5,a5,0x3
    2a62:	4701                	li	a4,0
    2a64:	bd35                	j	28a0 <__subsf3+0x18c>
    2a66:	ec0706e3          	beqz	a4,2932 <__subsf3+0x21e>
    2a6a:	409506b3          	sub	a3,a0,s1
    2a6e:	8736                	mv	a4,a3
    2a70:	e40481e3          	beqz	s1,28b2 <__subsf3+0x19e>
    2a74:	04000737          	lui	a4,0x4000
    2a78:	8fd9                	or	a5,a5,a4
    2a7a:	842e                	mv	s0,a1
    2a7c:	bf15                	j	29b0 <__subsf3+0x29c>
    2a7e:	e00703e3          	beqz	a4,2884 <__subsf3+0x170>
    2a82:	409505b3          	sub	a1,a0,s1
    2a86:	e099                	bnez	s1,2a8c <__subsf3+0x378>
    2a88:	872e                	mv	a4,a1
    2a8a:	b3c1                	j	284a <__subsf3+0x136>
    2a8c:	04000737          	lui	a4,0x4000
    2a90:	8fd9                	or	a5,a5,a4
    2a92:	b3e9                	j	285c <__subsf3+0x148>

00002a94 <__unordsf2>:
    2a94:	01755693          	srli	a3,a0,0x17
    2a98:	00800737          	lui	a4,0x800
    2a9c:	177d                	addi	a4,a4,-1 # 7fffff <_data_lma+0x7fce97>
    2a9e:	0175d613          	srli	a2,a1,0x17
    2aa2:	0ff6f693          	zext.b	a3,a3
    2aa6:	0ff00313          	li	t1,255
    2aaa:	00a777b3          	and	a5,a4,a0
    2aae:	0ff67613          	zext.b	a2,a2
    2ab2:	8f6d                	and	a4,a4,a1
    2ab4:	00668b63          	beq	a3,t1,2aca <__unordsf2+0x36>
    2ab8:	0ff00793          	li	a5,255
    2abc:	4501                	li	a0,0
    2abe:	00f60363          	beq	a2,a5,2ac4 <__unordsf2+0x30>
    2ac2:	8082                	ret
    2ac4:	00e03533          	snez	a0,a4
    2ac8:	8082                	ret
    2aca:	4505                	li	a0,1
    2acc:	d7f5                	beqz	a5,2ab8 <__unordsf2+0x24>
    2ace:	8082                	ret

00002ad0 <__fixsfsi>:
    2ad0:	00800637          	lui	a2,0x800
    2ad4:	01755713          	srli	a4,a0,0x17
    2ad8:	fff60793          	addi	a5,a2,-1 # 7fffff <_data_lma+0x7fce97>
    2adc:	0ff77713          	zext.b	a4,a4
    2ae0:	07e00593          	li	a1,126
    2ae4:	00a7f6b3          	and	a3,a5,a0
    2ae8:	01f55793          	srli	a5,a0,0x1f
    2aec:	00e5db63          	bge	a1,a4,2b02 <__fixsfsi+0x32>
    2af0:	09d00593          	li	a1,157
    2af4:	00e5d963          	bge	a1,a4,2b06 <__fixsfsi+0x36>
    2af8:	80000537          	lui	a0,0x80000
    2afc:	157d                	addi	a0,a0,-1 # 7fffffff <_eusrstack+0x5fffefff>
    2afe:	953e                	add	a0,a0,a5
    2b00:	8082                	ret
    2b02:	4501                	li	a0,0
    2b04:	8082                	ret
    2b06:	09500593          	li	a1,149
    2b0a:	8ed1                	or	a3,a3,a2
    2b0c:	00e5cd63          	blt	a1,a4,2b26 <__fixsfsi+0x56>
    2b10:	09600613          	li	a2,150
    2b14:	40e60733          	sub	a4,a2,a4
    2b18:	00e6d6b3          	srl	a3,a3,a4
    2b1c:	40d00533          	neg	a0,a3
    2b20:	f3f5                	bnez	a5,2b04 <__fixsfsi+0x34>
    2b22:	8536                	mv	a0,a3
    2b24:	8082                	ret
    2b26:	f6a70713          	addi	a4,a4,-150
    2b2a:	00e696b3          	sll	a3,a3,a4
    2b2e:	b7fd                	j	2b1c <__fixsfsi+0x4c>

00002b30 <__floatsisf>:
    2b30:	1151                	addi	sp,sp,-12
    2b32:	c406                	sw	ra,8(sp)
    2b34:	c222                	sw	s0,4(sp)
    2b36:	c026                	sw	s1,0(sp)
    2b38:	c121                	beqz	a0,2b78 <__floatsisf+0x48>
    2b3a:	41f55713          	srai	a4,a0,0x1f
    2b3e:	00a744b3          	xor	s1,a4,a0
    2b42:	8c99                	sub	s1,s1,a4
    2b44:	87aa                	mv	a5,a0
    2b46:	8526                	mv	a0,s1
    2b48:	01f7d413          	srli	s0,a5,0x1f
    2b4c:	2ab9                	jal	2caa <__clzsi2>
    2b4e:	86aa                	mv	a3,a0
    2b50:	09e00513          	li	a0,158
    2b54:	40d507b3          	sub	a5,a0,a3
    2b58:	09600713          	li	a4,150
    2b5c:	02f74b63          	blt	a4,a5,2b92 <__floatsisf+0x62>
    2b60:	4721                	li	a4,8
    2b62:	08e68b63          	beq	a3,a4,2bf8 <__floatsisf+0xc8>
    2b66:	ff868513          	addi	a0,a3,-8 # 3fffff8 <_data_lma+0x3ffce90>
    2b6a:	00a49733          	sll	a4,s1,a0
    2b6e:	0726                	slli	a4,a4,0x9
    2b70:	8325                	srli	a4,a4,0x9
    2b72:	0ff7f513          	zext.b	a0,a5
    2b76:	a021                	j	2b7e <__floatsisf+0x4e>
    2b78:	4401                	li	s0,0
    2b7a:	4501                	li	a0,0
    2b7c:	4701                	li	a4,0
    2b7e:	40a2                	lw	ra,8(sp)
    2b80:	01f41793          	slli	a5,s0,0x1f
    2b84:	4412                	lw	s0,4(sp)
    2b86:	055e                	slli	a0,a0,0x17
    2b88:	8d59                	or	a0,a0,a4
    2b8a:	4482                	lw	s1,0(sp)
    2b8c:	8d5d                	or	a0,a0,a5
    2b8e:	0131                	addi	sp,sp,12
    2b90:	8082                	ret
    2b92:	09900713          	li	a4,153
    2b96:	04f74463          	blt	a4,a5,2bde <__floatsisf+0xae>
    2b9a:	4715                	li	a4,5
    2b9c:	ffb68613          	addi	a2,a3,-5
    2ba0:	00e68463          	beq	a3,a4,2ba8 <__floatsisf+0x78>
    2ba4:	00c494b3          	sll	s1,s1,a2
    2ba8:	fc000637          	lui	a2,0xfc000
    2bac:	167d                	addi	a2,a2,-1 # fbffffff <_eusrstack+0xdbffefff>
    2bae:	0074f593          	andi	a1,s1,7
    2bb2:	00c4f733          	and	a4,s1,a2
    2bb6:	cd99                	beqz	a1,2bd4 <__floatsisf+0xa4>
    2bb8:	88bd                	andi	s1,s1,15
    2bba:	4591                	li	a1,4
    2bbc:	00b48c63          	beq	s1,a1,2bd4 <__floatsisf+0xa4>
    2bc0:	0711                	addi	a4,a4,4
    2bc2:	040005b7          	lui	a1,0x4000
    2bc6:	8df9                	and	a1,a1,a4
    2bc8:	c591                	beqz	a1,2bd4 <__floatsisf+0xa4>
    2bca:	09f00513          	li	a0,159
    2bce:	8f71                	and	a4,a4,a2
    2bd0:	40d507b3          	sub	a5,a0,a3
    2bd4:	071a                	slli	a4,a4,0x6
    2bd6:	8325                	srli	a4,a4,0x9
    2bd8:	0ff7f513          	zext.b	a0,a5
    2bdc:	b74d                	j	2b7e <__floatsisf+0x4e>
    2bde:	01b68713          	addi	a4,a3,27
    2be2:	4615                	li	a2,5
    2be4:	00e49733          	sll	a4,s1,a4
    2be8:	8e15                	sub	a2,a2,a3
    2bea:	00c4d633          	srl	a2,s1,a2
    2bee:	00e03733          	snez	a4,a4
    2bf2:	00e664b3          	or	s1,a2,a4
    2bf6:	bf4d                	j	2ba8 <__floatsisf+0x78>
    2bf8:	00949713          	slli	a4,s1,0x9
    2bfc:	8325                	srli	a4,a4,0x9
    2bfe:	09600513          	li	a0,150
    2c02:	bfb5                	j	2b7e <__floatsisf+0x4e>

00002c04 <__extendsfdf2>:
    2c04:	01755793          	srli	a5,a0,0x17
    2c08:	0ff7f793          	zext.b	a5,a5
    2c0c:	1141                	addi	sp,sp,-16
    2c0e:	00178693          	addi	a3,a5,1
    2c12:	c422                	sw	s0,8(sp)
    2c14:	00951713          	slli	a4,a0,0x9
    2c18:	c606                	sw	ra,12(sp)
    2c1a:	0fe6f693          	andi	a3,a3,254
    2c1e:	8325                	srli	a4,a4,0x9
    2c20:	01f55413          	srli	s0,a0,0x1f
    2c24:	c28d                	beqz	a3,2c46 <__extendsfdf2+0x42>
    2c26:	00375693          	srli	a3,a4,0x3
    2c2a:	38078793          	addi	a5,a5,896
    2c2e:	0776                	slli	a4,a4,0x1d
    2c30:	01f41513          	slli	a0,s0,0x1f
    2c34:	40b2                	lw	ra,12(sp)
    2c36:	4422                	lw	s0,8(sp)
    2c38:	07d2                	slli	a5,a5,0x14
    2c3a:	8fd5                	or	a5,a5,a3
    2c3c:	8fc9                	or	a5,a5,a0
    2c3e:	85be                	mv	a1,a5
    2c40:	853a                	mv	a0,a4
    2c42:	0141                	addi	sp,sp,16
    2c44:	8082                	ret
    2c46:	eb8d                	bnez	a5,2c78 <__extendsfdf2+0x74>
    2c48:	c721                	beqz	a4,2c90 <__extendsfdf2+0x8c>
    2c4a:	853a                	mv	a0,a4
    2c4c:	c03a                	sw	a4,0(sp)
    2c4e:	28b1                	jal	2caa <__clzsi2>
    2c50:	47a9                	li	a5,10
    2c52:	4702                	lw	a4,0(sp)
    2c54:	04a7c563          	blt	a5,a0,2c9e <__extendsfdf2+0x9a>
    2c58:	46ad                	li	a3,11
    2c5a:	8e89                	sub	a3,a3,a0
    2c5c:	01550793          	addi	a5,a0,21
    2c60:	00d756b3          	srl	a3,a4,a3
    2c64:	00f71733          	sll	a4,a4,a5
    2c68:	38900793          	li	a5,905
    2c6c:	06b2                	slli	a3,a3,0xc
    2c6e:	8f89                	sub	a5,a5,a0
    2c70:	82b1                	srli	a3,a3,0xc
    2c72:	7ff7f793          	andi	a5,a5,2047
    2c76:	bf6d                	j	2c30 <__extendsfdf2+0x2c>
    2c78:	cf19                	beqz	a4,2c96 <__extendsfdf2+0x92>
    2c7a:	00375693          	srli	a3,a4,0x3
    2c7e:	000807b7          	lui	a5,0x80
    2c82:	8edd                	or	a3,a3,a5
    2c84:	06b2                	slli	a3,a3,0xc
    2c86:	0776                	slli	a4,a4,0x1d
    2c88:	82b1                	srli	a3,a3,0xc
    2c8a:	7ff00793          	li	a5,2047
    2c8e:	b74d                	j	2c30 <__extendsfdf2+0x2c>
    2c90:	4781                	li	a5,0
    2c92:	4681                	li	a3,0
    2c94:	bf71                	j	2c30 <__extendsfdf2+0x2c>
    2c96:	7ff00793          	li	a5,2047
    2c9a:	4681                	li	a3,0
    2c9c:	bf51                	j	2c30 <__extendsfdf2+0x2c>
    2c9e:	ff550693          	addi	a3,a0,-11
    2ca2:	00d716b3          	sll	a3,a4,a3
    2ca6:	4701                	li	a4,0
    2ca8:	b7c1                	j	2c68 <__extendsfdf2+0x64>

00002caa <__clzsi2>:
    2caa:	67c1                	lui	a5,0x10
    2cac:	02f57563          	bgeu	a0,a5,2cd6 <__clzsi2+0x2c>
    2cb0:	10053793          	sltiu	a5,a0,256
    2cb4:	0017c793          	xori	a5,a5,1
    2cb8:	078e                	slli	a5,a5,0x3
    2cba:	02000713          	li	a4,32
    2cbe:	8f1d                	sub	a4,a4,a5
    2cc0:	00f55533          	srl	a0,a0,a5
    2cc4:	00000797          	auipc	a5,0x0
    2cc8:	3a478793          	addi	a5,a5,932 # 3068 <__clz_tab>
    2ccc:	97aa                	add	a5,a5,a0
    2cce:	2388                	lbu	a0,0(a5)
    2cd0:	40a70533          	sub	a0,a4,a0
    2cd4:	8082                	ret
    2cd6:	010007b7          	lui	a5,0x1000
    2cda:	00f57f63          	bgeu	a0,a5,2cf8 <__clzsi2+0x4e>
    2cde:	47c1                	li	a5,16
    2ce0:	00f55533          	srl	a0,a0,a5
    2ce4:	00000797          	auipc	a5,0x0
    2ce8:	38478793          	addi	a5,a5,900 # 3068 <__clz_tab>
    2cec:	97aa                	add	a5,a5,a0
    2cee:	2388                	lbu	a0,0(a5)
    2cf0:	4741                	li	a4,16
    2cf2:	40a70533          	sub	a0,a4,a0
    2cf6:	8082                	ret
    2cf8:	47e1                	li	a5,24
    2cfa:	00f55533          	srl	a0,a0,a5
    2cfe:	00000797          	auipc	a5,0x0
    2d02:	36a78793          	addi	a5,a5,874 # 3068 <__clz_tab>
    2d06:	97aa                	add	a5,a5,a0
    2d08:	2388                	lbu	a0,0(a5)
    2d0a:	4721                	li	a4,8
    2d0c:	40a70533          	sub	a0,a4,a0
    2d10:	8082                	ret

00002d12 <__errno>:
    2d12:	8081a503          	lw	a0,-2040(gp) # 200000c8 <_impure_ptr>
    2d16:	8082                	ret
    2d18:	4441                	li	s0,16
    2d1a:	49542043          	.4byte	0x49542043
    2d1e:	204d                	jal	2dc0 <__errno+0xae>
    2d20:	0a0d                	addi	s4,s4,3
    2d22:	0000                	unimp
    2d24:	74737953          	.4byte	0x74737953
    2d28:	6d65                	lui	s10,0x19
    2d2a:	3a6b6c43          	.4byte	0x3a6b6c43
    2d2e:	0000                	unimp
    2d30:	4f50                	lw	a2,28(a4)
    2d32:	00524557          	.4byte	0x524557
    2d36:	0000                	unimp
    2d38:	20317173          	.4byte	0x20317173
    2d3c:	0000                	unimp
    2d3e:	0000                	unimp
    2d40:	6120                	.2byte	0x6120
    2d42:	6364                	.2byte	0x6364
    2d44:	2031                	jal	2d50 <__errno+0x3e>
    2d46:	0000                	unimp
    2d48:	6364                	.2byte	0x6364
    2d4a:	2031                	jal	2d56 <__errno+0x44>
    2d4c:	0000                	unimp
    2d4e:	0000                	unimp
    2d50:	7220                	.2byte	0x7220
    2d52:	736d                	lui	t1,0xffffb
    2d54:	2031                	jal	2d60 <__errno+0x4e>
    2d56:	0000                	unimp
    2d58:	20327173          	.4byte	0x20327173
    2d5c:	0000                	unimp
    2d5e:	0000                	unimp
    2d60:	6120                	.2byte	0x6120
    2d62:	6364                	.2byte	0x6364
    2d64:	2032                	lhu	a2,2(s0)
    2d66:	0000                	unimp
    2d68:	7220                	.2byte	0x7220
    2d6a:	736d                	lui	t1,0xffffb
    2d6c:	2032                	lhu	a2,2(s0)
    2d6e:	0000                	unimp
    2d70:	2070                	lbu	a2,6(s0)
    2d72:	0000                	unimp
    2d74:	6620                	.2byte	0x6620
    2d76:	2070                	lbu	a2,6(s0)
    2d78:	0000                	unimp
    2d7a:	0000                	unimp
    2d7c:	0a0d                	addi	s4,s4,3
    2d7e:	0a0d                	addi	s4,s4,3
    2d80:	0000                	unimp
    2d82:	0000                	unimp
    2d84:	2049                	jal	2e06 <font+0x2e>
    2d86:	2020                	lbu	s0,2(s0)
    2d88:	2020                	lbu	s0,2(s0)
    2d8a:	2020                	lbu	s0,2(s0)
    2d8c:	0020                	addi	s0,sp,8
    2d8e:	0000                	unimp
    2d90:	2056                	lhu	a3,4(s0)
    2d92:	2020                	lbu	s0,2(s0)
    2d94:	2020                	lbu	s0,2(s0)
    2d96:	2020                	lbu	s0,2(s0)
    2d98:	0020                	addi	s0,sp,8
    2d9a:	0000                	unimp
    2d9c:	2050                	lbu	a2,4(s0)
    2d9e:	2020                	lbu	s0,2(s0)
    2da0:	2020                	lbu	s0,2(s0)
    2da2:	2020                	lbu	s0,2(s0)
    2da4:	0020                	addi	s0,sp,8
    2da6:	0000                	unimp
    2da8:	5046                	.2byte	0x5046
    2daa:	2020                	lbu	s0,2(s0)
    2dac:	2020                	lbu	s0,2(s0)
    2dae:	2020                	lbu	s0,2(s0)
    2db0:	0020                	addi	s0,sp,8
    2db2:	0000                	unimp
    2db4:	0000                	unimp
    2db6:	4280                	lw	s0,0(a3)
    2db8:	8000                	lbu	s0,0(sp)
    2dba:	454545bb          	.4byte	0x454545bb
    2dbe:	3c01                	jal	27ce <__subsf3+0xba>
    2dc0:	10cd                	addi	ra,ra,-13
    2dc2:	3e75                	jal	297e <__subsf3+0x26a>
    2dc4:	0000                	unimp
    2dc6:	0000                	unimp
    2dc8:	47ae147b          	.4byte	0x47ae147b
    2dcc:	7ae1                	lui	s5,0xffff8
    2dce:	3f84                	lbu	s1,25(a5)
    2dd0:	999a                	add	s3,s3,t1
    2dd2:	9999                	andi	a1,a1,-26
    2dd4:	9999                	andi	a1,a1,-26
    2dd6:	3fb9                	jal	2d34 <__errno+0x22>

00002dd8 <font>:
    2dd8:	0000 0000 0000 4f00 0000 0700 0700 1400     .......O........
    2de8:	147f 147f 2a24 2a7f 2312 0813 6264 4936     ....$*.*.#..db6I
    2df8:	2255 0050 0305 0000 1c00 4122 0000 2241     U"P......."A..A"
    2e08:	001c 0814 083e 0814 3e08 0808 5000 0030     ....>....>...P0.
    2e18:	0800 0808 0808 6000 0060 2000 0810 0204     .......``.. ....
    2e28:	513e 4549 003e 7f42 0040 6142 4951 2146     >QIE>.B.@.BaQIF!
    2e38:	4541 314b 1418 7f12 2710 4545 3945 4a3c     AEK1.....'EEE9<J
    2e48:	4949 0130 0971 0305 4936 4949 0636 4949     II0.q...6III6.II
    2e58:	1e29 3600 0036 0000 3656 0000 1408 4122     )..66...V6...."A
    2e68:	1400 1414 1414 4100 1422 0208 5101 0609     .......A"....Q..
    2e78:	4932 4179 7e3e 1111 7e11 497f 4949 3e36     2IyA>~...~.III6>
    2e88:	4141 2241 417f 2241 7f1c 4949 4149 097f     AAA".AA"..IIIA..
    2e98:	0909 3e01 4941 7a49 087f 0808 007f 7f41     ...>AIIz......A.
    2ea8:	0041 4020 3f41 7f01 1408 4122 407f 4040     A. @A?...."A.@@@
    2eb8:	7f40 0c02 7f02 047f 1008 3e7f 4141 3e41     @..........>AAA>
    2ec8:	097f 0909 3e06 5141 5e21 097f 2919 4646     .....>AQ!^...)FF
    2ed8:	4949 3149 0101 017f 3f01 4040 3f40 201f     III1.....?@@@?. 
    2ee8:	2040 3f1f 3840 3f40 1463 1408 0763 7008     @ .?@8@?c...c..p
    2ef8:	0708 5161 4549 0043 417f 0041 0402 1008     ..aQIEC..AA.....
    2f08:	0020 4141 007f 0204 0201 4004 4040 4040      .AA.......@@@@@
    2f18:	0100 0402 2000 5454 7854 487f 4444 3838     ..... TTTx.HDD88
    2f28:	4444 2044 4438 4844 387f 5454 1854 7e08     DDD 8DDH.8TTT..~
    2f38:	0109 0c02 5252 3e52 087f 0404 0078 7d44     ....RRR>....x.D}
    2f48:	0040 4020 3d44 7f00 2810 0044 4100 407f     @. @D=...(D..A.@
    2f58:	7c00 1804 7804 087c 0404 3878 4444 3844     .|...x|...x8DDD8
    2f68:	147c 1414 0808 1414 7c18 087c 0404 4808     |........||....H
    2f78:	5454 2054 3f04 4044 3c20 4040 7c20 201c     TTT .?D@ <@@ |. 
    2f88:	2040 3c1c 3040 3c40 2844 2810 0c44 5050     @ .<@0@<D(.(D.PP
    2f98:	3c50 6444 4c54 0044 3608 0041 0000 007f     P<DdTLD..6A.....
    2fa8:	0000 3641 0008 0808 1c2a 0808 2a1c 0808     ..A6....*....*..
	...
    2fc0:	f2c2 ffff f11c ffff f146 ffff f230 ffff     ........F...0...
    2fd0:	f146 ffff f14c ffff f146 ffff f230 ffff     F...L...F...0...
    2fe0:	f11c ffff f11c ffff f14c ffff f230 ffff     ........L...0...
    2ff0:	f21e ffff f21e ffff f21e ffff f14c ffff     ............L...
    3000:	f0dc ffff f0dc ffff f106 ffff f37a ffff     ............z...
    3010:	f106 ffff f10c ffff f106 ffff f37a ffff     ............z...
    3020:	f0dc ffff f0dc ffff f10c ffff f37a ffff     ............z...
    3030:	f1de ffff f1de ffff f364 ffff f0ce ffff     ........d.......
    3040:	f348 ffff f0ce ffff f364 ffff f0a4 ffff     H.......d.......
    3050:	f0a4 ffff f348 ffff f364 ffff f1a2 ffff     ....H...d.......
    3060:	f1a2 ffff f1a2 ffff                         ........

00003068 <__clz_tab>:
    3068:	0100 0202 0303 0303 0404 0404 0404 0404     ................
    3078:	0505 0505 0505 0505 0505 0505 0505 0505     ................
    3088:	0606 0606 0606 0606 0606 0606 0606 0606     ................
    3098:	0606 0606 0606 0606 0606 0606 0606 0606     ................
    30a8:	0707 0707 0707 0707 0707 0707 0707 0707     ................
    30b8:	0707 0707 0707 0707 0707 0707 0707 0707     ................
    30c8:	0707 0707 0707 0707 0707 0707 0707 0707     ................
    30d8:	0707 0707 0707 0707 0707 0707 0707 0707     ................
    30e8:	0808 0808 0808 0808 0808 0808 0808 0808     ................
    30f8:	0808 0808 0808 0808 0808 0808 0808 0808     ................
    3108:	0808 0808 0808 0808 0808 0808 0808 0808     ................
    3118:	0808 0808 0808 0808 0808 0808 0808 0808     ................
    3128:	0808 0808 0808 0808 0808 0808 0808 0808     ................
    3138:	0808 0808 0808 0808 0808 0808 0808 0808     ................
    3148:	0808 0808 0808 0808 0808 0808 0808 0808     ................
    3158:	0808 0808 0808 0808 0808 0808 0808 0808     ................
